(dp1
S'moonraker-ian_fleming'
p2
(lp3
VUnited States
p4
aS'Russian Federation'
p5
aS'United Kingdom'
p6
ag4
aVCanada
p7
ag4
aVAustralia
p8
aVJapan
p9
aVUnited Kingdom
p10
ag4
aVTurkey
p11
ag10
ag4
ag8
aVSouth Africa
p12
ag7
aS'United Kingdom'
p13
aVPoland
p14
aVSingapore
p15
ag8
aVGermany
p16
ag4
aVIran, Islamic Republic of
p17
aVBelgium
p18
ag10
ag16
ag4
aVPoland
p19
ag7
ag12
ag8
ag4
aVChile
p20
aVSpain
p21
aVUkraine
p22
ag4
ag4
ag4
aS'British Indian Ocean Territory'
p23
ag22
ag10
ag4
ag7
ag8
aVSouth Africa
p24
ag10
aVItaly
p25
ag4
ag7
ag8
aS'United Kingdom'
p26
ag4
ag7
ag12
ag10
ag25
aVMonaco
p27
aVFrance
p28
aVNorway
p29
ag28
ag4
ag10
ag4
ag7
ag8
ag28
ag22
aVIreland
p30
ag10
ag4
ag7
ag12
ag10
ag4
ag8
ag7
ag4
ag10
aVKenya
p31
ag4
ag10
ag29
ag10
ag8
ag4
ag30
aVBrazil
p32
ag12
ag10
ag7
ag4
ag28
aVThailand
p33
ag10
ag4
ag10
ag4
ag8
ag10
ag4
ag7
ag8
aS'United Kingdom'
p34
aVLatvia
p35
ag4
ag28
aS'Dominican Republic'
p36
aVJersey
p37
aVFrance
p38
ag10
ag4
ag7
ag12
aS'Russian Federation'
p39
ag4
ag10
ag4
ag7
ag8
ag4
ag28
aVSwitzerland
p40
ag28
ag4
aS'United Kingdom'
p41
ag4
ag7
ag4
ag8
aVNew Zealand
p42
ag10
ag4
ag7
ag10
ag4
aVEgypt
p43
ag10
ag4
ag10
ag10
ag10
aVBrazil
p44
aS'Central African Republic'
p45
ag4
aVPhilippines
p46
aVCosta Rica
p47
aVPanama
p48
aVMexico
p49
aVArgentina
p50
aVVenezuela, Bolivarian Republic of
p51
aVJapan
p52
ag10
ag4
ag7
ag12
aVNigeria
p53
aS'Hong Kong'
p54
aVSingapore
p55
ag8
aVMorocco
p56
ag4
ag7
ag4
ag10
ag4
aVBarbados
p57
ag7
aS'United Kingdom'
p58
ag7
ag4
ag22
ag10
ag4
ag57
ag16
ag7
ag22
ag16
ag4
ag22
ag4
ag7
aS'Russian Federation'
p59
ag10
ag7
ag8
ag4
ag22
ag4
ag8
ag7
ag4
ag10
ag7
ag4
ag10
aVRussian Federation
p60
aVCzech Republic
p61
ag4
ag8
ag29
ag16
ag27
ag28
ag7
ag10
ag4
ag8
ag57
ag7
ag10
ag4
ag8
ag7
ag57
ag10
ag4
ag57
ag7
ag4
ag7
ag22
ag4
ag10
ag4
ag57
ag7
ag10
ag4
ag28
ag57
ag7
ag22
aS'British Indian Ocean Territory'
p62
ag11
ag4
ag21
ag16
ag8
ag7
ag4
ag10
ag10
ag4
ag57
ag7
ag22
ag10
ag4
ag7
ag12
ag4
ag4
ag4
ag10
ag4
ag7
ag12
ag4
ag28
ag4
ag8
aS'French Southern Territories'
p63
ag28
ag10
ag4
ag12
ag8
ag42
ag46
ag50
aS'British Indian Ocean Territory'
p64
ag10
ag4
aS'British Indian Ocean Territory'
p65
ag4
ag10
ag16
ag4
ag28
ag7
ag28
ag10
ag4
ag57
ag7
ag10
ag4
ag7
ag12
aVHungary
p66
ag28
ag10
ag4
ag7
ag12
ag7
ag8
ag4
ag28
ag7
ag10
ag4
ag7
ag12
ag29
ag22
ag10
ag4
ag7
ag12
ag28
ag10
ag4
ag7
ag16
ag12
ag8
ag28
ag10
ag4
aVLibya
p67
ag7
ag12
aVLebanon
p68
ag8
aVGreece
p69
ag16
ag29
ag10
ag7
ag8
ag4
aS'Christmas Island'
p70
ag10
ag7
aVFrance
p71
ag10
ag4
ag7
ag12
ag10
ag4
ag7
ag12
ag22
ag50
aVUruguay
p72
ag47
ag22
aVFrance
p73
ag10
ag4
ag7
ag12
ag57
aS'British Indian Ocean Territory'
p74
ag10
ag4
ag40
ag7
ag16
ag12
ag56
ag8
ag66
aS'British Indian Ocean Territory'
p75
aS'Russian Federation'
p76
ag66
ag4
aS'Christmas Island'
p77
ag10
ag4
ag7
ag12
ag10
ag4
ag7
ag12
ag10
ag4
ag7
ag12
ag57
ag8
ag4
ag7
ag10
ag50
ag72
ag47
ag10
ag4
ag8
ag7
ag57
ag50
ag72
ag47
ag4
ag10
ag50
ag72
ag47
ag10
ag4
ag7
ag12
ag19
ag22
ag51
ag10
ag4
ag7
ag12
ag10
ag4
ag7
ag12
ag8
ag50
ag72
ag47
ag4
ag50
ag72
ag47
ag4
ag10
ag50
ag72
ag47
ag8
ag4
ag7
ag10
ag50
ag72
ag47
ag10
ag4
ag8
ag7
ag50
ag72
ag47
aS'Christmas Island'
p78
ag4
aVSweden
p79
ag50
ag72
ag47
ag10
ag4
ag8
ag7
ag8
ag7
ag4
ag10
ag10
ag4
ag22
aS'Macedonia, Republic of'
p80
aS'British Indian Ocean Territory'
p81
aVBelgium
p82
aVFrance
p83
ag16
ag4
aVFrance
p84
aS'British Indian Ocean Territory'
p85
aS'British Indian Ocean Territory'
p86
ag4
ag4
ag28
ag10
ag60
ag4
ag7
ag12
ag66
ag10
ag4
ag7
ag12
ag10
ag4
ag7
ag12
ag4
ag4
ag16
ag10
ag4
ag4
ag7
ag4
ag7
ag4
ag7
aS'United Kingdom'
p87
ag4
aS'United Kingdom'
p88
ag4
ag7
ag28
ag33
aVBelgium
p89
aVFrance
p90
ag4
aS'United Kingdom'
p91
ag4
aS'Russian Federation'
p92
ag4
ag22
ag10
ag4
ag7
ag12
ag28
aVFrance
p93
ag10
ag4
ag57
ag19
ag7
aVFrance
p94
ag4
ag7
aVFrance
p95
ag4
aS'Russian Federation'
p96
aVJamaica
p97
aS'Hong Kong'
p98
ag10
ag4
ag7
ag12
ag28
asS'live_and_let_die-ian_fleming'
p99
(lp100
S'Russian Federation'
p101
ag4
aS'United Kingdom'
p102
ag4
ag7
ag10
ag4
ag10
ag4
ag8
ag4
ag4
aS'United Kingdom'
p103
ag4
ag8
aS'British Indian Ocean Territory'
p104
aS'French Southern Territories'
p105
ag10
ag4
ag28
ag7
aS'British Indian Ocean Territory'
p106
aVJamaica
p107
ag10
ag4
ag7
ag12
ag28
ag10
ag4
ag8
ag7
ag12
ag8
ag4
aS'French Southern Territories'
p108
ag25
ag4
ag7
ag8
ag16
ag10
aS'British Indian Ocean Territory'
p109
aVJamaica
p110
aS'Micronesia, Federated States of'
p111
aS'Saint Pierre and Miquelon'
p112
ag4
ag28
aS'Christmas Island'
p113
ag4
aVPuerto Rico
p114
ag50
ag28
ag72
ag113
ag4
ag114
ag50
ag28
ag72
ag113
ag4
ag114
ag50
ag28
ag72
aVHaiti
p115
aS'French Southern Territories'
p116
ag4
aVHaiti
p117
aS'French Southern Territories'
p118
aVFrance
p119
ag60
ag4
aS'Russian Federation'
p120
ag4
ag4
aVJamaica
p121
ag10
ag4
ag7
ag12
aVHaiti
p122
ag4
ag28
ag4
ag10
ag4
ag29
aVJamaica
p123
aVHaiti
p124
aVCuba
p125
aVMexico
p126
ag4
ag114
ag50
aVPortugal
p127
ag72
aVJamaica
p128
ag10
ag4
ag7
ag10
ag4
ag114
ag50
ag72
ag10
ag4
ag7
ag12
ag4
ag4
ag28
ag7
ag60
ag4
ag8
ag4
ag4
ag29
ag10
ag42
ag50
ag4
ag29
ag10
ag42
ag50
ag4
ag29
ag10
ag42
ag50
ag4
ag8
ag4
ag16
ag4
ag16
ag4
ag16
ag10
ag4
ag7
ag12
ag29
ag9
aVHaiti
p129
aS'Christmas Island'
p130
ag4
ag8
ag28
ag4
aVColombia
p131
ag7
aS'British Indian Ocean Territory'
p132
aS'French Southern Territories'
p133
ag60
ag4
aVHaiti
p134
aVHaiti
p135
aS'French Southern Territories'
p136
aS'Central African Republic'
p137
ag4
ag4
ag4
ag4
ag29
ag10
ag8
aS'British Indian Ocean Territory'
p138
ag10
ag4
ag7
ag12
ag8
ag10
ag4
ag7
ag12
ag10
ag4
ag10
ag4
ag10
ag4
aS"Korea, Democratic People's Republic of"
p139
aS'Egypt'
p140
aS'Bosnia and Herzegovina'
p141
aS'French Southern Territories'
p142
ag10
ag4
ag8
ag7
ag140
ag141
ag142
ag10
ag4
ag8
ag7
ag140
ag141
ag142
ag10
ag4
ag8
ag7
ag4
ag10
aS'British Indian Ocean Territory'
p143
ag4
ag7
ag114
ag50
ag72
ag4
ag10
ag4
ag8
ag10
ag4
ag30
ag32
ag12
ag8
ag10
ag4
ag30
ag32
ag12
ag8
ag10
ag4
ag30
ag32
ag12
ag8
ag10
ag4
ag30
ag32
ag12
ag8
ag10
ag4
ag30
ag32
ag12
aVGeorgia
p144
ag4
ag114
ag4
ag50
ag72
aS'United Kingdom'
p145
ag4
ag8
ag114
ag50
ag72
aVCuba
p146
ag10
ag4
ag8
ag127
ag4
aVMexico
p147
ag4
ag7
ag114
ag50
ag72
aS'Bahamas'
p148
ag4
ag10
ag7
ag28
ag8
ag18
ag30
aVMexico
p149
ag10
ag4
ag7
ag12
ag4
aVHaiti
p150
aS'Central African Republic'
p151
ag10
ag4
aVJamaica
p152
ag4
ag40
ag131
aVNetherlands
p153
aVAustria
p154
ag16
ag7
ag4
aVJamaica
p155
aS'Micronesia, Federated States of'
p156
ag4
ag28
aVCuba
p157
ag10
ag4
ag127
ag4
ag28
ag4
ag4
ag10
ag4
ag4
aS'French Southern Territories'
p158
ag10
ag4
ag4
ag4
ag10
ag4
aVJamaica
p159
aVCuba
p160
ag10
ag4
ag7
aVBahamas
p161
ag12
ag131
ag16
ag127
aS'French Southern Territories'
p162
ag4
ag4
ag8
ag42
ag4
aVSpain
p163
ag4
aS'Christmas Island'
p164
ag4
ag29
ag4
aVJamaica
p165
aVCuba
p166
ag4
ag127
ag46
aVJamaica
p167
ag4
ag114
ag50
ag8
ag131
ag7
ag72
aVCuba
p168
ag10
ag4
ag7
ag161
ag12
ag16
ag127
aVJamaica
p169
ag10
ag4
ag7
ag161
ag12
ag16
ag28
aVJamaica
p170
ag28
ag10
ag4
ag8
ag7
aVNorfolk Island
p171
aVJamaica
p172
aVPanama
p173
aVSpain
p174
ag28
ag4
ag10
ag7
ag16
ag51
aVJamaica
p175
aVMexico
p176
ag4
aVJamaica
p177
aVBermuda
p178
ag10
ag4
ag7
ag12
aVJamaica
p179
aVCuba
p180
ag10
ag4
ag8
ag7
ag12
ag171
ag127
aS'French Southern Territories'
p181
ag10
ag4
ag8
ag7
ag12
ag171
aVJamaica
p182
aVJamaica
p183
aVCuba
p184
ag10
ag4
ag8
ag7
ag171
ag127
aVJamaica
p185
ag4
ag8
ag7
ag10
ag18
aVMexico
p186
ag28
ag4
aS'Bahamas'
p187
ag4
ag182
aVJamaica
p188
ag4
ag30
ag4
ag4
ag7
ag10
ag42
ag8
ag4
aS'United Kingdom'
p189
ag4
ag7
ag40
ag8
ag28
ag10
ag4
ag8
ag7
ag12
ag171
ag182
ag4
ag7
aS'United Kingdom'
p190
ag4
ag28
ag4
aVJamaica
p191
ag4
aVJamaica
p192
ag4
aS'Afghanistan'
p193
aS'Bahamas'
p194
aVJamaica
p195
ag4
aVJamaica
p196
ag28
ag10
ag4
ag8
ag7
ag171
aVJamaica
p197
ag10
ag4
ag8
ag7
ag171
aVJamaica
p198
ag4
aS'Russian Federation'
p199
aVJamaica
p200
aS'Hong Kong'
p201
ag10
ag4
ag7
ag12
ag28
asS'the_spy_who_loved_me-ian_fleming'
p202
(lp203
S'Russian Federation'
p204
ag10
ag4
ag7
ag8
aS'United Kingdom'
p205
ag4
ag7
ag10
ag4
ag7
ag12
ag10
ag4
ag7
ag12
ag8
ag28
ag42
ag4
ag4
ag4
ag12
ag4
ag8
ag4
ag7
ag30
ag32
ag12
ag7
ag28
ag4
aS'United Kingdom'
p206
aS'French Southern Territories'
p207
aVFrance
p208
ag40
ag4
ag4
ag8
aVSwitzerland
p209
ag7
ag4
ag4
ag153
ag127
ag10
ag4
ag8
ag7
ag12
ag10
ag4
ag8
ag7
ag28
ag4
ag30
ag7
ag10
ag10
ag66
ag8
ag4
ag10
ag4
ag7
ag12
ag28
ag42
ag10
ag4
ag7
ag12
ag42
aS'United Kingdom'
p210
ag10
ag4
ag8
ag7
ag12
ag4
ag10
ag4
ag8
ag7
ag42
ag66
ag10
ag4
ag7
ag66
ag42
ag10
ag4
ag7
ag66
ag42
ag10
ag4
ag7
ag66
ag42
aVCanada
p211
ag4
ag8
ag10
ag4
ag4
ag16
ag10
ag4
ag7
ag16
ag12
ag8
ag22
ag16
ag4
ag22
ag10
ag25
ag16
ag4
ag7
ag12
aVItaly
p212
ag79
ag4
ag16
ag4
ag4
ag8
ag7
ag10
ag22
aVSwitzerland
p213
ag4
ag4
ag8
ag10
ag4
ag7
ag114
ag50
ag12
ag29
ag8
ag72
aVCanada
p214
ag10
ag4
ag7
ag28
ag4
aS'French Southern Territories'
p215
ag7
ag4
ag28
aVCanada
p216
aS'Micronesia, Federated States of'
p217
ag4
ag4
ag7
ag25
ag28
ag4
ag4
ag8
ag42
aS'Micronesia, Federated States of'
p218
ag4
ag4
ag8
ag42
aS'Russian Federation'
p219
aVJapan
p220
ag4
aVCanada
p221
ag4
ag4
ag8
aS'Micronesia, Federated States of'
p222
ag66
ag4
ag10
ag4
ag8
ag7
ag29
ag4
ag114
ag4
ag50
ag72
ag4
ag4
aS'United Kingdom'
p223
ag4
ag8
ag42
ag4
ag4
ag8
ag42
ag10
ag4
ag10
ag4
ag30
aS'British Indian Ocean Territory'
p224
aVCanada
p225
aVNew Zealand
p226
aVAustralia
p227
aS'Central African Republic'
p228
ag16
ag4
aVCanada
p229
aS'Bahamas'
p230
aVFinland
p231
ag4
ag8
ag60
ag4
ag28
ag7
ag8
ag22
ag10
ag4
ag4
ag4
ag4
ag10
ag4
ag12
aVCanada
p232
ag4
aS'United Kingdom'
p233
ag4
ag10
ag4
ag66
ag4
ag4
ag4
aS'United Kingdom'
p234
aS'French Southern Territories'
p235
aS'French Southern Territories'
p236
ag4
aS'United Kingdom'
p237
ag10
ag4
ag8
ag42
ag10
ag4
ag8
ag42
ag10
ag4
ag8
ag42
aVMexico
p238
ag10
ag4
ag7
ag29
ag8
ag153
ag42
ag4
aS'United Kingdom'
p239
ag4
ag8
ag42
ag239
ag4
ag8
ag42
ag239
ag4
ag8
ag42
ag10
ag4
ag66
ag4
aS'Russian Federation'
p240
aVJamaica
p241
aS'Hong Kong'
p242
ag10
ag4
ag7
ag12
ag28
asS'goldfinger-ian_fleming'
p243
(lp244
S'Russian Federation'
p245
ag10
ag4
ag7
ag8
aS'United Kingdom'
p246
ag4
aVMexico
p247
ag4
aVMexico
p248
ag4
aS'United Kingdom'
p249
aVTurkey
p250
aVItaly
p251
aS'China'
p252
aVMexico
p253
ag4
ag60
ag10
ag4
ag49
ag7
ag12
aVSeychelles
p254
aVMalta
p255
aVRomania
p256
aVMalaysia
p257
aVChile
p258
ag50
aVTrinidad and Tobago
p259
ag48
ag4
ag32
aVMexico
p260
ag4
ag51
ag131
ag7
aVFrance
p261
ag4
ag33
ag25
ag28
ag4
ag21
ag25
ag4
ag28
ag25
aS'Christmas Island'
p262
ag4
ag131
ag28
ag7
ag25
ag4
aVIsle of Man
p263
ag131
ag30
ag10
ag28
ag7
ag25
ag10
ag4
ag28
ag25
ag28
ag25
ag4
ag131
ag28
ag7
ag25
ag4
ag161
ag66
ag16
ag28
ag25
ag4
ag161
ag16
ag28
ag25
ag28
ag25
ag10
ag4
ag7
ag12
ag4
ag28
ag25
aVCanada
p264
aVMexico
p265
ag4
ag28
ag8
ag25
ag4
ag28
ag25
ag4
ag10
ag28
ag25
ag4
ag4
ag28
ag25
ag4
ag28
ag25
ag4
ag28
ag25
ag16
ag40
ag4
ag131
ag153
ag7
aS'Afghanistan'
p266
aS'British Indian Ocean Territory'
p267
aS'Hong Kong'
p268
aS'Macao'
p269
aS'China'
p270
ag10
ag4
ag7
ag12
ag60
aS'British Indian Ocean Territory'
p271
ag9
ag10
ag4
ag7
ag12
ag4
ag10
ag40
ag4
ag28
ag25
ag4
ag16
ag4
ag66
aVSwitzerland
p272
aS'French Southern Territories'
p273
ag68
ag4
ag7
ag16
aVMalawi
p274
ag66
aVSouth Africa
p275
ag4
ag153
ag4
ag16
ag153
ag66
ag8
ag16
ag4
ag66
aS'Central African Republic'
p276
aVIndia
p277
aVAustralia
p278
aVMexico
p279
aS'Egypt'
p280
aS'British Indian Ocean Territory'
p281
aVPeru
p282
aS'Russian Federation'
p283
aVCyprus
p284
ag21
ag4
ag7
ag10
ag29
ag28
ag32
aVNicaragua
p285
ag48
aS'Central African Republic'
p286
ag4
ag32
aS'British Indian Ocean Territory'
p287
ag16
ag4
ag66
aS'British Indian Ocean Territory'
p288
aS'Macao'
p289
ag4
ag10
ag10
ag4
ag35
ag7
ag12
ag29
aS'British Indian Ocean Territory'
p290
aVSwitzerland
p291
aS'French Southern Territories'
p292
ag10
ag4
ag7
ag8
ag42
ag22
ag50
aS'British Indian Ocean Territory'
p293
ag10
ag8
ag4
aVCanada
p294
aVPanama
p295
ag4
ag40
ag161
ag16
ag66
ag60
ag16
ag4
ag10
ag66
aVCanada
p296
ag10
ag4
ag16
ag56
ag7
ag66
ag28
ag10
ag60
ag4
ag8
ag42
ag50
aS'Russian Federation'
p297
ag10
ag4
ag16
ag7
ag66
ag10
ag60
ag4
ag7
ag16
ag12
ag8
ag66
ag42
ag50
ag60
ag4
ag161
ag16
aVFrance
p298
ag10
ag8
ag4
ag7
ag10
ag4
ag7
ag4
ag29
ag7
ag10
ag4
ag7
ag153
ag8
ag4
ag131
ag7
ag66
ag127
ag10
ag4
ag8
ag161
ag7
ag16
ag7
ag4
aS'United Kingdom'
p299
aVCanada
p300
ag8
ag4
ag29
aS'Virgin Islands, U.S.'
p301
ag4
ag29
ag29
ag4
ag66
ag153
ag66
ag10
ag4
ag8
ag28
ag30
ag10
ag4
ag10
ag12
ag8
aS'British Indian Ocean Territory'
p302
ag28
ag4
ag7
ag8
ag4
ag50
ag4
aS'China'
p303
ag9
ag4
ag60
ag10
ag4
ag7
ag12
ag4
aS'United Kingdom'
p304
aVCanada
p305
ag4
ag28
ag4
ag10
ag4
ag8
ag7
ag12
ag29
ag10
ag4
ag4
ag10
ag8
ag28
ag28
ag4
ag7
ag32
ag28
ag4
ag7
ag32
aVSwitzerland
p306
aVItaly
p307
ag28
ag4
ag7
ag32
ag28
aVFrance
p308
ag4
ag7
ag32
aVItaly
p309
aVFrance
p310
ag4
ag40
ag22
ag8
aVSwitzerland
p311
aVItaly
p312
aVFrance
p313
ag4
ag8
aVSwitzerland
p314
ag28
ag10
ag4
ag7
ag12
ag8
ag40
ag4
ag4
ag28
ag40
ag4
ag66
ag28
ag40
ag4
ag25
aVSwitzerland
p315
aS'French Southern Territories'
p316
ag4
ag28
ag10
ag40
ag8
ag10
ag4
ag7
ag4
ag32
aS'British Indian Ocean Territory'
p317
ag28
ag40
aVSaudi Arabia
p318
ag4
ag10
ag7
ag16
aS'British Indian Ocean Territory'
p319
ag4
ag7
ag28
ag10
ag25
aS'British Indian Ocean Territory'
p320
aVSwitzerland
p321
aS'French Southern Territories'
p322
aS'United Kingdom'
p323
ag318
ag4
ag161
ag16
aVSwitzerland
p324
aS'British Indian Ocean Territory'
p325
ag16
ag4
ag66
ag28
ag10
ag7
ag4
ag16
ag66
ag28
aS'Christmas Island'
p326
ag10
ag4
ag7
ag12
ag4
ag66
ag131
ag10
ag7
ag28
ag4
ag4
ag28
ag4
ag40
ag131
ag10
ag7
ag4
ag28
ag40
ag4
ag4
ag4
aVGhana
p327
ag4
ag8
ag42
ag4
ag8
ag12
aS'Christmas Island'
p328
ag4
ag40
ag10
ag4
ag4
ag7
aVCanada
p329
ag28
ag30
ag21
aVGreece
p330
ag4
ag4
ag153
ag4
ag153
ag7
ag4
ag4
ag4
ag131
ag7
ag4
ag28
ag40
ag4
ag4
ag277
ag131
ag28
ag7
aVCuba
p331
aS'Solomon Islands'
p332
ag4
aVIndonesia
p333
ag7
aS'Solomon Islands'
p334
ag4
ag21
ag333
aS'Hong Kong'
p335
ag277
ag153
ag4
aS'Solomon Islands'
p336
ag10
ag4
ag21
ag333
ag4
ag4
ag28
ag10
ag4
ag153
ag4
ag4
ag4
ag9
ag22
ag4
ag4
ag4
aS'Central African Republic'
p337
ag28
aS'Solomon Islands'
p338
ag4
ag333
aS'Solomon Islands'
p339
ag29
ag4
ag333
aS'United States'
p340
ag28
aS'Solomon Islands'
p341
ag4
ag42
ag333
ag4
ag8
ag4
ag30
ag22
ag32
ag12
aS'Russian Federation'
p342
aVPanama
p343
ag4
ag28
ag42
ag4
ag21
ag21
ag10
ag4
ag21
ag10
ag4
ag21
ag10
ag4
ag21
aVCanada
p344
ag4
ag4
aS'Solomon Islands'
p345
ag4
ag333
ag22
ag4
ag153
ag28
ag28
ag28
ag4
ag4
aS'United Kingdom'
p346
aS'Christmas Island'
p347
ag258
ag29
ag4
aVPeru
p348
ag46
ag32
ag49
ag131
ag28
aS'Holy See (Vatican City State)'
p349
ag10
ag4
ag7
ag12
aVCanada
p350
aS'Congo, The Democratic Republic of the'
p351
aVCuba
p352
ag10
ag4
ag114
ag50
ag12
ag127
ag72
aS'British Indian Ocean Territory'
p353
ag4
ag318
ag40
ag16
ag66
ag10
ag4
ag16
ag4
ag153
ag66
ag28
ag10
ag4
ag7
ag12
ag18
ag7
ag4
ag4
ag60
ag4
ag60
ag4
aS'British Indian Ocean Territory'
p354
aS'Russian Federation'
p355
ag40
ag4
ag28
ag25
ag7
ag4
ag10
ag4
ag7
ag28
ag10
ag4
ag7
ag12
aS'British Indian Ocean Territory'
p356
ag10
ag4
ag7
ag12
aVCanada
p357
aS'China'
p358
ag4
ag28
aS'Russian Federation'
p359
aVJamaica
p360
aS'Hong Kong'
p361
ag10
ag4
ag7
ag12
ag28
asS'for_your_eyes_only_james_bond_007-ian_fleming'
p362
(lp363
VSeychelles
p364
aS'British Indian Ocean Territory'
p365
aS'British Indian Ocean Territory'
p366
aVSeychelles
p367
ag4
aS'British Indian Ocean Territory'
p368
aVSeychelles
p369
ag4
ag7
ag10
ag255
ag256
ag257
ag49
ag258
ag50
ag259
ag48
aS'Central African Republic'
p370
ag28
ag4
ag7
aS'Falkland Islands (Malvinas)'
p371
aVSeychelles
p372
aVMaldives
p373
ag4
ag7
aVSeychelles
p374
aVFrance
p375
ag10
aVUganda
p376
ag31
ag4
ag16
ag4
ag22
ag10
ag4
ag7
ag12
ag4
ag4
aVSeychelles
p377
ag4
aVSeychelles
p378
ag4
aS'British Indian Ocean Territory'
p379
ag4
ag16
ag10
ag10
ag4
ag28
ag7
ag12
aVBrazil
p380
ag4
ag9
ag25
ag4
ag28
ag31
ag7
aS'Russian Federation'
p381
aS'China'
p382
aVFrance
p383
ag4
ag29
ag7
aVItaly
p384
aVFrance
p385
ag4
ag4
ag10
ag8
ag4
ag46
ag4
ag29
aVHong Kong
p386
ag4
ag31
ag28
ag33
aS'British Indian Ocean Territory'
p387
ag376
asS'on_her_majestys_secret_service-ian_fleming'
p388
(lp389
S'Russian Federation'
p390
ag4
ag390
ag4
aVFrance
p391
ag10
aS'French Southern Territories'
p392
ag4
ag7
ag66
aS'French Southern Territories'
p393
ag28
ag4
ag7
ag50
ag25
ag4
ag22
ag50
aS'French Southern Territories'
p394
ag12
ag8
ag7
ag4
ag10
aS'Timor-Leste'
p395
ag28
aVBelgium
p396
ag28
ag4
ag66
ag7
ag28
ag4
ag66
ag7
ag66
ag4
ag25
aS'Saint Vincent and the Grenadines'
p397
aS'French Southern Territories'
p398
ag28
aVFrance
p399
ag28
ag18
ag28
ag4
ag7
ag28
ag18
ag28
ag18
ag22
aVFrance
p400
ag18
ag4
aS'Egypt'
p401
aVItaly
p402
aVFrance
p403
ag4
ag28
ag18
ag7
ag4
ag153
ag28
ag4
ag7
aS'French Southern Territories'
p404
ag4
ag7
ag4
ag7
ag7
ag4
aVFrance
p405
ag4
ag7
ag8
ag4
ag7
ag30
aVFrance
p406
ag4
ag7
ag25
aVFrance
p407
aS'Czech Republic'
p408
aS'Micronesia, Federated States of'
p409
aS'French Southern Territories'
p410
ag4
aVSaint Vincent and the Grenadines
p411
ag72
aVItaly
p412
aVFrance
p413
ag4
aVSwitzerland
p414
ag4
ag411
ag72
aVSwitzerland
p415
aS'British Indian Ocean Territory'
p416
ag28
ag4
aVSwitzerland
p417
ag66
aVSwitzerland
p418
ag28
ag4
ag411
ag72
aVSwitzerland
p419
aVFrance
p420
ag10
ag4
ag8
ag7
ag12
aVSwitzerland
p421
aS'United Kingdom'
p422
ag4
aS'Christmas Island'
p423
ag10
ag4
ag7
ag12
aS'Christmas Island'
p424
ag10
ag4
ag7
ag12
ag274
aS'French Southern Territories'
p425
ag4
ag7
ag8
aS'British Indian Ocean Territory'
p426
ag10
ag7
ag4
aS'British Indian Ocean Territory'
p427
ag4
ag4
aVAustralia
p428
ag4
ag7
aVPoland
p429
aVFrance
p430
ag16
ag4
ag40
ag28
ag4
ag7
aS'United Kingdom'
p431
aVPoland
p432
aVFrance
p433
ag4
ag19
ag4
ag277
ag40
ag22
ag4
ag10
ag4
aVSwitzerland
p434
ag4
ag30
ag10
ag28
aVSwitzerland
p435
ag4
aS'French Southern Territories'
p436
aVFrance
p437
ag4
ag7
ag8
ag10
aVSwitzerland
p438
ag4
ag7
ag438
ag4
ag7
ag438
ag4
ag7
ag4
ag7
aVFrance
p439
ag7
ag4
aS'French Southern Territories'
p440
ag4
ag7
ag22
aVItaly
p441
ag4
ag8
ag7
ag40
ag8
ag40
ag4
ag10
ag4
ag7
ag12
aS'French Southern Territories'
p442
ag4
ag8
ag29
ag57
ag4
ag57
ag7
ag7
ag4
ag10
ag57
aVSingapore
p443
ag4
ag4
ag8
ag7
ag57
ag4
aVSwitzerland
p444
aVAustria
p445
ag8
ag4
ag22
ag10
ag42
ag4
ag57
ag7
ag57
ag4
aS'Turks and Caicos Islands'
p446
ag4
ag57
ag153
aS'Macedonia, Republic of'
p447
ag4
ag8
ag66
aVItaly
p448
ag4
ag40
aS'French Southern Territories'
p449
ag40
ag16
ag19
ag61
ag28
ag4
ag7
ag66
ag22
ag32
ag66
ag57
ag4
ag4
ag40
ag57
ag153
ag32
aS'United Kingdom'
p450
ag16
aS'United Kingdom'
p451
aS'Macedonia, Republic of'
p452
ag8
ag16
ag57
ag4
ag40
aS'United Kingdom'
p453
aVFrance
p454
ag16
ag19
ag4
ag30
ag57
ag4
ag16
ag10
ag28
ag40
ag57
ag4
ag10
ag4
ag7
ag12
ag28
ag4
aS'British Indian Ocean Territory'
p455
aS'French Southern Territories'
p456
ag10
ag4
ag8
ag7
ag66
aS'United Kingdom'
p457
ag4
ag7
ag30
ag4
ag8
ag57
aS'United Kingdom'
p458
ag4
ag7
ag12
ag57
ag57
ag4
ag4
ag8
ag19
ag4
ag10
ag4
ag7
ag16
ag19
ag12
ag154
aVPoland
p459
aVFrance
p460
ag4
ag7
ag4
ag8
aS'British Indian Ocean Territory'
p461
ag4
ag8
ag10
ag4
ag7
ag12
ag8
ag57
ag4
ag386
ag10
ag4
ag8
ag57
ag7
ag57
ag4
ag66
ag57
ag4
ag22
ag32
ag10
ag4
ag57
ag4
ag8
ag7
ag4
ag8
ag32
aS'Saint Pierre and Miquelon'
p462
ag4
ag28
ag4
ag40
ag66
ag40
ag66
ag29
ag4
ag4
ag7
ag66
ag4
ag50
ag72
ag47
aS'Christmas Island'
p463
ag4
ag40
ag7
ag50
ag72
ag47
ag66
ag4
ag66
ag4
ag153
ag4
ag7
ag4
ag7
ag50
ag72
ag47
ag4
ag7
aS'British Indian Ocean Territory'
p464
aS'Christmas Island'
p465
ag28
ag10
ag4
ag40
ag8
ag7
ag12
ag16
aS'Christmas Island'
p466
ag16
ag4
ag29
ag7
ag50
ag72
ag47
ag4
ag16
ag66
ag29
ag7
ag10
ag4
ag7
ag12
aS'French Southern Territories'
p467
ag4
ag8
ag7
ag10
aS'Christmas Island'
p468
ag19
ag4
aS'Christmas Island'
p469
ag4
ag153
ag8
ag10
ag4
ag7
ag16
ag19
ag10
ag4
ag7
ag12
ag8
ag8
ag4
aS'Christmas Island'
p470
aS'French Southern Territories'
p471
ag4
ag50
ag72
ag47
ag470
ag471
ag4
ag50
ag72
ag47
ag470
ag471
ag4
ag50
ag72
ag47
ag4
ag8
ag4
ag28
ag8
ag4
ag57
ag8
aS'British Indian Ocean Territory'
p472
ag10
ag4
ag7
ag12
aS'United Kingdom'
p473
ag4
ag153
ag8
ag60
ag32
aS'United Kingdom'
p474
ag4
ag8
aS'Christmas Island'
p475
ag4
ag153
ag8
ag4
ag46
aVNamibia
p476
ag8
ag4
ag46
ag476
ag8
ag4
ag46
ag476
ag8
aS'United Kingdom'
p477
ag4
ag8
ag4
ag66
ag8
ag32
ag4
ag476
ag4
ag8
aS'United Kingdom'
p478
aS'Christmas Island'
p479
ag4
ag8
aVSwitzerland
p480
ag4
ag8
ag4
ag153
aS'British Indian Ocean Territory'
p481
ag4
ag16
ag277
ag30
ag29
ag10
ag28
ag7
aVSwitzerland
p482
ag4
aS'French Southern Territories'
p483
ag8
ag7
ag4
ag18
ag25
aS'French Southern Territories'
p484
ag25
ag4
ag28
ag40
aS'Tanzania, United Republic of'
p485
ag4
ag16
ag57
ag4
ag4
ag411
ag72
aVSwitzerland
p486
aS'China'
p487
aS'French Southern Territories'
p488
ag10
ag4
ag28
ag8
ag7
ag12
ag32
aS'United Kingdom'
p489
ag4
aS'French Southern Territories'
p490
ag28
ag4
ag7
aVFrance
p491
ag4
ag411
ag7
ag72
ag4
ag411
ag7
ag72
aS'French Southern Territories'
p492
ag4
ag50
ag411
ag28
ag72
aVItaly
p493
aS'French Southern Territories'
p494
ag40
ag4
aVSwitzerland
p495
ag28
ag4
ag29
ag16
aVSwitzerland
p496
ag4
aS'French Southern Territories'
p497
ag4
ag50
ag22
ag66
ag66
aVItaly
p498
aS'French Southern Territories'
p499
ag4
ag40
aS'Christmas Island'
p500
ag29
ag4
ag4
ag7
aS'British Indian Ocean Territory'
p501
ag10
ag16
ag4
ag7
ag12
ag22
aS'British Indian Ocean Territory'
p502
aVItaly
p503
ag28
ag4
ag66
ag7
ag4
ag7
ag4
ag7
ag4
ag7
aS'British Indian Ocean Territory'
p504
ag4
ag7
aS'French Southern Territories'
p505
ag10
ag4
ag7
ag12
ag4
ag154
ag16
ag7
aVAustria
p506
ag4
ag7
ag22
ag4
ag16
ag154
ag7
ag8
aVJamaica
p507
aS'Hong Kong'
p508
ag10
ag60
ag4
ag7
ag12
aS'Russian Federation'
p509
ag4
ag28
asS'diamonds_are_forever-ian_fleming'
p510
(lp511
S'Russian Federation'
p512
ag10
ag4
ag7
ag8
aS'United Kingdom'
p513
ag4
ag7
aVSierra Leone
p514
aVLiberia
p515
aS'British Indian Ocean Territory'
p516
aS'French Southern Territories'
p517
aS'Central African Republic'
p518
ag47
ag10
ag4
ag7
ag12
ag10
ag4
ag7
ag12
aVSenegal
p519
aVSierra Leone
p520
ag10
ag4
ag7
ag12
ag4
ag4
aS'British Indian Ocean Territory'
p521
aVFrance
p522
ag10
ag4
ag7
ag12
ag521
ag522
ag10
ag4
ag7
ag12
ag521
ag522
ag10
ag4
ag7
ag12
ag8
ag4
ag4
ag21
ag131
ag7
ag22
ag4
ag10
ag4
ag8
ag7
ag25
aS'Russian Federation'
p523
aVLiberia
p524
aVFrance
p525
aS'Central African Republic'
p526
aS'French Southern Territories'
p527
ag10
ag4
ag7
ag12
ag411
ag47
ag72
ag523
ag524
ag525
ag526
ag527
ag10
ag4
ag7
ag12
ag411
ag47
ag72
ag523
ag524
ag525
ag526
ag527
ag10
ag4
ag7
ag12
ag411
ag47
ag72
ag4
ag12
ag57
ag4
ag153
ag10
ag4
ag4
ag10
ag4
ag7
ag12
aVPortugal
p528
ag4
ag25
ag28
ag4
ag4
ag29
ag7
aS'British Indian Ocean Territory'
p529
ag4
ag29
ag29
ag25
ag10
ag4
ag7
ag12
ag25
ag10
ag4
ag21
ag259
ag32
aS'Afghanistan'
p530
ag10
ag4
ag131
ag50
ag7
ag8
ag10
ag4
ag7
ag12
ag10
ag4
ag7
ag12
ag8
ag4
ag4
ag7
ag30
aS'United Kingdom'
p531
ag4
ag7
ag30
ag4
ag10
ag4
ag4
ag10
ag4
ag7
ag12
ag10
ag4
ag7
ag12
ag4
ag4
ag4
ag7
ag4
ag114
ag4
ag50
ag8
ag72
ag4
ag28
ag4
ag28
ag4
ag28
ag4
ag28
ag4
ag28
ag4
ag21
ag28
ag4
ag4
ag8
ag12
ag4
ag21
ag4
ag21
ag46
ag258
ag49
ag48
aS'Macao'
p532
ag4
ag29
ag28
ag33
ag10
ag4
ag7
ag12
ag29
aS'Central African Republic'
p533
ag10
ag4
ag7
ag12
ag4
ag7
ag8
ag4
ag4
aS'British Indian Ocean Territory'
p534
ag4
ag21
ag8
ag10
ag4
ag7
ag131
ag30
ag4
ag114
ag50
ag21
ag10
ag72
ag4
ag28
ag18
ag10
ag4
ag28
ag7
ag8
ag30
ag4
ag8
aS'French Southern Territories'
p535
ag4
aS'Micronesia, Federated States of'
p536
ag4
ag8
ag12
ag4
aS'United Kingdom'
p537
ag4
ag16
ag4
aS'United Kingdom'
p538
aS'Micronesia, Federated States of'
p539
ag4
ag16
ag131
ag46
ag7
ag47
ag48
ag49
ag50
ag51
aS'United Kingdom'
p540
ag4
ag16
aS'United Kingdom'
p541
ag4
ag16
ag4
ag4
ag4
ag4
aS'French Southern Territories'
p542
ag4
ag4
ag16
aS'Christmas Island'
p543
ag28
ag18
ag4
ag8
ag42
ag4
ag21
ag28
ag46
ag258
ag49
ag18
ag48
ag4
ag4
ag21
ag10
ag27
ag10
ag4
ag7
ag12
ag21
ag29
ag4
ag4
ag4
ag4
ag4
ag4
ag4
ag28
ag40
ag25
aS'British Indian Ocean Territory'
p544
ag4
ag28
ag18
ag28
ag18
ag4
ag21
ag4
ag4
ag10
ag4
ag7
ag12
ag28
ag33
ag4
ag21
ag28
ag18
ag4
ag28
ag18
ag8
ag10
ag4
ag7
ag12
ag4
ag21
ag28
ag40
ag4
ag4
ag28
ag18
ag28
ag4
ag4
ag10
ag4
ag7
ag12
ag4
ag4
ag4
ag4
ag4
ag10
ag4
ag7
ag12
ag4
ag8
ag12
ag4
ag8
ag12
ag4
ag8
ag12
ag4
ag4
ag259
ag32
ag25
aS'Christmas Island'
p545
ag4
ag21
ag4
ag4
ag29
ag153
ag259
ag32
ag10
ag4
ag28
ag18
ag10
ag4
ag7
ag12
ag28
ag10
ag4
ag7
ag12
aS'British Indian Ocean Territory'
p546
aS'Central African Republic'
p547
ag10
ag4
ag7
ag12
ag21
ag10
ag4
ag10
ag4
ag7
ag12
ag10
ag4
ag28
ag18
ag7
ag10
ag4
ag7
ag12
ag4
ag28
ag25
ag4
ag28
ag25
ag4
ag28
ag25
ag4
ag4
ag4
ag21
aS'United Kingdom'
p548
aS'United Kingdom'
p549
ag4
ag4
ag8
ag12
ag4
ag10
ag4
ag7
ag12
ag4
aS'Central African Republic'
p550
aS'French Southern Territories'
p551
ag79
aS'Central African Republic'
p552
ag10
ag4
ag28
ag8
aVSierra Leone
p553
ag4
ag10
ag4
ag7
ag12
ag22
ag22
ag4
ag79
ag28
ag4
ag7
aS'French Southern Territories'
p554
ag10
ag4
ag7
ag12
ag553
ag519
aS'Russian Federation'
p555
aVJamaica
p556
aS'Hong Kong'
p557
ag10
ag4
ag7
ag12
ag28
asS'the_property_of_a_lady-ian_fleming'
p558
(lp559
g10
ag4
aS'French Southern Territories'
p560
ag28
ag4
ag8
ag7
ag29
aS'Russian Federation'
p561
aS'British Indian Ocean Territory'
p562
ag28
ag4
ag7
ag29
aS'Russian Federation'
p563
aS'French Southern Territories'
p564
ag4
ag29
aS'Congo'
p565
ag9
ag50
aS'British Indian Ocean Territory'
p566
ag28
ag4
ag7
ag10
ag4
ag7
ag12
ag29
aVDenmark
p567
aVGreece
p568
ag10
ag4
ag7
ag12
aS'Russian Federation'
p569
aS'Saint Pierre and Miquelon'
p570
ag4
ag277
ag28
ag29
ag10
ag60
ag4
ag7
ag12
ag348
aS'British Indian Ocean Territory'
p571
ag4
ag18
aS'United Kingdom'
p572
ag4
ag7
ag12
ag32
ag4
ag10
ag8
ag7
ag4
ag29
ag4
ag18
ag4
asS'you_only_live_twice-ian_fleming'
p573
(lp574
S'Russian Federation'
p575
ag4
ag7
aS'United Kingdom'
p576
ag4
ag4
ag4
ag10
ag4
aVJapan
p577
ag4
aS'United Kingdom'
p578
aVJapan
p579
ag4
ag7
ag12
ag42
aS'British Indian Ocean Territory'
p580
aVJapan
p581
ag4
ag4
aVJapan
p582
ag4
ag10
ag4
ag7
ag12
ag25
ag32
ag258
ag4
ag8
ag28
ag4
ag7
aVJamaica
p583
aVFrance
p584
ag4
ag19
ag7
ag4
aVJapan
p585
ag60
ag4
aVJapan
p586
aS'Hong Kong'
p587
ag10
ag4
ag7
ag42
ag19
ag4
aS'China'
p588
aS'Macao'
p589
aS'Hong Kong'
p590
ag9
ag8
ag4
ag10
ag42
ag7
aVBermuda
p591
ag29
ag60
ag50
aVJapan
p592
ag4
ag42
ag8
ag7
ag28
ag591
ag10
ag9
ag4
ag7
ag153
ag4
ag4
ag50
ag9
ag4
ag50
ag4
ag50
ag8
ag4
ag10
ag22
aVJapan
p593
ag8
ag4
ag10
ag4
ag4
ag4
aS'Christmas Island'
p594
ag9
ag4
ag4
ag4
ag4
aVJapan
p595
ag256
ag9
aS'United Kingdom'
p596
aVJapan
p597
ag4
ag7
ag12
aS'United Kingdom'
p598
ag8
ag4
ag7
ag12
ag9
ag598
ag8
ag4
ag7
ag12
ag9
ag598
ag8
ag4
ag7
ag12
ag9
aVJapan
p599
aS'China'
p600
ag66
ag4
ag60
ag8
ag10
ag4
ag7
ag12
ag9
aVJapan
p601
ag4
ag7
aVJapan
p602
ag4
ag25
ag4
aVJapan
p603
ag4
aVSwitzerland
p604
aVJapan
p605
ag28
ag4
ag114
ag50
ag7
ag72
ag49
aVSwitzerland
p606
aVJapan
p607
ag4
ag8
ag411
ag28
ag72
ag49
aVJapan
p608
ag4
aVSwitzerland
p609
aS'China'
p610
ag9
ag4
ag60
aVJapan
p611
ag4
aS'British Indian Ocean Territory'
p612
aVBrazil
p613
aVMadagascar
p614
aS'Timor-Leste'
p615
ag4
aS'British Indian Ocean Territory'
p616
aS'Central African Republic'
p617
aVMexico
p618
ag4
ag21
ag46
aVGuatemala
p619
aVBrazil
p620
aS'British Indian Ocean Territory'
p621
aS'China'
p622
aS'Central African Republic'
p623
ag4
ag66
ag60
ag21
ag46
ag619
ag9
ag4
aS'United Kingdom'
p624
aVJapan
p625
ag4
ag624
ag625
ag4
ag624
ag625
ag4
aVJapan
p626
ag4
aVJapan
p627
ag4
ag9
ag4
aS'British Indian Ocean Territory'
p628
aVJapan
p629
ag4
aS'British Indian Ocean Territory'
p630
ag4
aS'United Kingdom'
p631
ag4
aVJapan
p632
ag4
ag4
aVJapan
p633
ag4
aVJapan
p634
ag4
ag4
ag4
aVJapan
p635
ag4
ag9
ag4
ag25
ag16
ag4
ag9
ag66
aVJapan
p636
ag4
aS'British Indian Ocean Territory'
p637
ag4
ag29
ag9
ag4
ag9
ag4
ag7
ag4
ag9
ag4
aS'China'
p638
aS"Korea, Democratic People's Republic of"
p639
ag9
ag4
ag60
ag9
ag4
ag4
ag4
ag9
ag22
aS'British Indian Ocean Territory'
p640
aVJapan
p641
ag4
ag4
aVJapan
p642
ag4
ag25
ag69
ag4
ag7
ag4
aS'British Indian Ocean Territory'
p643
aVJapan
p644
ag4
ag256
ag4
ag4
ag153
ag9
ag4
ag4
ag9
ag22
ag4
ag4
aVJapan
p645
ag4
aVJapan
p646
ag4
ag30
ag4
aVJapan
p647
ag60
ag4
ag9
ag4
aS'Hong Kong'
p648
ag4
ag7
aVJapan
p649
ag48
ag4
ag4
ag9
ag4
ag4
ag4
ag9
ag4
aS'United Kingdom'
p650
ag4
ag4
ag48
aVJapan
p651
aVJapan
p652
ag4
ag48
ag9
ag4
ag4
ag48
ag48
ag48
ag48
aVJapan
p653
ag4
ag9
ag4
ag9
ag4
aS'United Kingdom'
p654
ag4
ag9
ag9
ag4
ag16
ag4
aVJapan
p655
ag4
ag7
aVJapan
p656
ag10
ag4
ag7
ag12
ag4
ag4
ag22
aVJapan
p657
ag4
ag9
ag154
ag16
ag22
ag4
aVBrazil
p658
ag4
ag154
ag16
ag4
ag4
ag9
ag4
aVJapan
p659
ag66
ag22
aS'British Indian Ocean Territory'
p660
ag9
ag154
ag16
aS'British Indian Ocean Territory'
p661
ag153
ag9
aS'Christmas Island'
p662
ag4
ag9
ag154
ag10
ag16
ag9
ag10
ag4
ag7
ag12
aS'Christmas Island'
p663
ag4
ag9
aS'United Kingdom'
p664
aS'French Southern Territories'
p665
ag25
ag32
ag258
aS'United Kingdom'
p666
ag4
ag28
aVJapan
p667
aS'French Southern Territories'
p668
ag10
ag4
ag8
ag7
ag28
ag22
aS'British Indian Ocean Territory'
p669
ag4
ag4
ag9
ag4
ag9
aVAustralia
p670
ag9
ag48
ag4
ag9
aS'Russian Federation'
p671
ag4
aS'Russian Federation'
p672
ag9
ag4
aS'Russian Federation'
p673
aVJamaica
p674
aS'Hong Kong'
p675
ag10
ag4
ag7
ag12
ag28
asS'from_russia_with_love-ian_fleming'
p676
(lp677
S'Russian Federation'
p678
ag4
ag7
aS'United Kingdom'
p679
ag4
ag60
ag4
ag29
aS'Afghanistan'
p680
ag60
ag4
ag60
ag4
aS'Russian Federation'
p681
ag4
ag22
ag60
ag4
ag10
ag4
ag22
aS'Christmas Island'
p682
ag4
ag10
ag7
aS'United Kingdom'
p683
ag16
ag4
aS'British Indian Ocean Territory'
p684
ag10
ag4
aS'British Indian Ocean Territory'
p685
ag4
ag21
aS'British Indian Ocean Territory'
p686
ag60
ag4
aS'British Indian Ocean Territory'
p687
aS'United Kingdom'
p688
aS'Russian Federation'
p689
ag4
ag22
aVUkraine
p690
aS'Russian Federation'
p691
aS'United Kingdom'
p692
ag4
aS'Afghanistan'
p693
ag4
ag4
ag60
ag4
ag60
ag16
ag4
aS'Afghanistan'
p694
ag4
aS'British Indian Ocean Territory'
p695
ag60
ag16
ag4
aS'Afghanistan'
p696
ag60
ag4
ag60
aS'British Indian Ocean Territory'
p697
aS'China'
p698
ag10
ag60
ag4
ag40
ag7
ag12
ag154
ag16
aS'Egypt'
p699
aVMorocco
p700
aVTurkey
p701
aVCyprus
p702
aVFrance
p703
ag4
ag60
aVAustralia
p704
ag4
aS'Russian Federation'
p705
aS'Afghanistan'
p706
ag4
ag22
ag10
ag4
ag7
ag12
aVSwitzerland
p707
aVBelgium
p708
aVNorway
p709
aVPortugal
p710
ag9
ag4
ag8
aVSweden
p711
aVFinland
p712
aVItaly
p713
aVSpain
p714
aVFrance
p715
ag4
aS'British Indian Ocean Territory'
p716
aVUkraine
p717
ag28
ag4
ag7
aS'British Indian Ocean Territory'
p718
aS'Afghanistan'
p719
aS'British Indian Ocean Territory'
p720
ag10
ag4
ag7
ag12
aVFrance
p721
ag4
ag22
ag4
ag10
ag4
ag7
ag8
aS'British Indian Ocean Territory'
p722
aS'French Southern Territories'
p723
ag4
ag22
ag4
aS'Russian Federation'
p724
aVGeorgia
p725
ag4
ag154
aS'Afghanistan'
p726
ag60
ag4
ag153
aS'United Kingdom'
p727
aVSpain
p728
ag60
ag4
aS'French Southern Territories'
p729
ag4
aS'Afghanistan'
p730
ag60
ag4
ag60
ag25
ag4
aS'Russian Federation'
p731
aVTurkmenistan
p732
ag4
aS'United Kingdom'
p733
aS'United Kingdom'
p734
aS'Russian Federation'
p735
ag4
aS'Afghanistan'
p736
aS'French Southern Territories'
p737
aVSwitzerland
p738
ag60
ag4
aS'Russian Federation'
p739
aS'Afghanistan'
p740
ag4
ag153
aS'Russian Federation'
p741
ag4
aVCanada
p742
aS'Afghanistan'
p743
ag4
aS'British Indian Ocean Territory'
p744
aS'Afghanistan'
p745
ag60
ag4
aS'Central African Republic'
p746
ag4
ag10
ag4
ag7
ag12
aVTurkey
p747
aS'British Indian Ocean Territory'
p748
aS'French Southern Territories'
p749
aVFrance
p750
ag10
ag4
ag8
ag7
ag12
ag4
aS'French Southern Territories'
p751
aVJersey
p752
ag10
ag4
ag7
ag12
ag10
ag4
ag7
ag12
aS'Hong Kong'
p753
ag10
ag4
ag8
aS'Russian Federation'
p754
ag66
ag61
ag4
ag8
ag8
ag7
ag4
ag10
ag8
ag153
aS'Micronesia, Federated States of'
p755
ag10
ag4
ag11
ag7
ag12
aS'Bahamas'
p756
aVTurkey
p757
aS'Russian Federation'
p758
ag4
ag28
ag60
ag4
aVTurkey
p759
ag4
ag11
ag11
ag4
ag25
ag69
ag4
ag11
ag7
aVTurkey
p760
ag4
aVFrance
p761
ag40
ag4
ag7
aS'Bahamas'
p762
aVItaly
p763
ag4
ag10
ag4
ag7
ag12
ag16
ag69
ag11
ag4
ag7
aS'Turks and Caicos Islands'
p764
ag11
ag127
ag4
ag127
aVTurkey
p765
aS'French Southern Territories'
p766
ag4
ag127
ag4
ag4
ag11
ag11
ag11
ag66
aVTurkey
p767
ag4
ag7
aS'United Kingdom'
p768
ag4
ag7
ag12
aVTurkey
p769
ag4
aVTurkey
p770
ag4
ag11
ag4
aVTurkey
p771
ag10
ag4
ag7
ag12
ag277
ag60
ag11
ag4
ag154
ag8
ag154
ag8
aVTurkey
p772
ag4
aS'French Southern Territories'
p773
ag4
ag4
ag4
ag4
ag11
ag11
ag22
ag4
ag7
ag10
aS'Russian Federation'
p774
ag10
ag4
ag7
ag12
aS'Russian Federation'
p775
ag4
ag10
ag4
ag7
ag12
ag10
ag4
ag11
ag7
ag12
aS'Macedonia, Republic of'
p776
aVBulgaria
p777
ag4
ag11
ag28
ag4
ag7
ag22
aVTurkey
p778
aS'Turks and Caicos Islands'
p779
aVGreece
p780
ag4
ag127
ag4
ag10
ag4
ag7
ag66
ag12
aS'United Kingdom'
p781
aS'French Southern Territories'
p782
ag28
ag4
ag7
ag22
aS'United Kingdom'
p783
aVTurkey
p784
aVGreece
p785
ag10
ag25
ag4
aVSerbia
p786
ag7
ag12
ag18
aVGreece
p787
ag786
ag4
ag18
aS'United Kingdom'
p788
ag11
ag22
aS'United Kingdom'
p789
aVTurkey
p790
aS'French Southern Territories'
p791
ag4
ag22
ag16
ag16
ag40
aS'Russian Federation'
p792
ag4
ag11
ag22
ag16
aS'Russian Federation'
p793
aVGreece
p794
ag4
ag16
aVCanada
p795
ag10
ag4
ag12
ag8
aVTurkey
p796
aVGreece
p797
ag16
ag28
ag4
ag7
ag10
ag69
ag4
ag7
ag12
aS'United Kingdom'
p798
ag11
ag786
ag4
ag18
ag16
ag60
ag786
ag4
ag18
aVTurkey
p799
ag4
ag7
ag22
aVSwitzerland
p800
aVItaly
p801
ag4
aVCroatia
p802
ag4
ag25
aS'Macedonia, Republic of'
p803
aVSlovenia
p804
ag25
ag4
aS'Macedonia, Republic of'
p805
ag25
ag4
ag10
ag4
ag7
ag12
ag8
ag25
ag4
ag30
ag32
ag12
ag10
ag4
ag10
ag4
ag10
aS'Russian Federation'
p806
ag25
ag4
ag7
aS'United Kingdom'
p807
aVAlbania
p808
ag25
ag8
ag28
ag4
aS'United Kingdom'
p809
ag4
ag4
ag10
aS'United Kingdom'
p810
ag60
ag4
ag4
ag10
ag4
ag10
aS'United Kingdom'
p811
ag4
ag7
ag12
ag10
ag4
ag7
ag12
ag25
ag16
ag60
ag11
ag4
ag10
aS'British Indian Ocean Territory'
p812
aS'French Southern Territories'
p813
ag25
ag4
ag10
aVTurkey
p814
ag9
ag25
ag786
ag4
ag18
ag10
aVSwitzerland
p815
aVFrance
p816
ag4
ag7
ag25
ag16
ag60
ag10
aS'Christmas Island'
p817
ag11
ag4
ag10
ag4
ag10
ag4
ag10
aVSwitzerland
p818
ag28
aS'French Southern Territories'
p819
ag28
ag4
ag40
ag7
aVFrance
p820
ag8
ag4
aS'French Southern Territories'
p821
ag8
ag22
ag10
ag4
ag7
ag12
ag25
ag16
ag60
ag28
ag4
ag7
ag25
ag16
ag60
aVJamaica
p822
aS'Hong Kong'
p823
ag10
ag60
ag4
ag7
ag12
aS'Russian Federation'
p824
ag4
ag28
asS'octopussy_and_the_living_daylights-ian_fleming'
p825
(lp826
S'Russian Federation'
p827
ag4
ag7
aS'United Kingdom'
p828
ag4
ag4
aVJamaica
p829
ag4
ag10
ag4
ag8
ag7
ag12
ag171
ag182
ag10
ag4
ag8
ag7
ag12
ag171
ag182
ag10
ag4
ag8
ag7
ag12
ag171
ag182
ag16
ag154
ag4
ag16
ag8
ag154
ag12
ag4
ag22
aVItaly
p830
ag4
ag22
ag7
ag10
ag4
ag8
ag7
ag171
ag182
ag22
ag16
ag277
ag154
ag4
ag4
ag28
ag7
aVAustria
p831
ag4
ag29
ag154
ag7
ag7
ag4
ag27
aS'British Indian Ocean Territory'
p832
ag10
ag4
ag8
ag7
ag16
ag277
ag12
ag154
aVJamaica
p833
ag10
ag4
ag8
ag7
ag171
ag19
aVJamaica
p834
aS'Macao'
p835
aS'Hong Kong'
p836
ag4
ag56
ag7
aVSwitzerland
p837
ag4
ag22
aS'Macao'
p838
aVJamaica
p839
ag4
ag10
ag4
ag8
ag7
ag171
ag182
ag28
aVJamaica
p840
ag10
ag4
ag277
ag7
ag4
ag66
ag4
ag10
ag4
ag7
ag12
ag10
ag4
aS'French Southern Territories'
p841
ag28
ag4
ag8
ag7
ag29
aS'Russian Federation'
p842
aS'British Indian Ocean Territory'
p843
ag28
ag4
ag7
ag29
aS'Russian Federation'
p844
aS'French Southern Territories'
p845
ag4
ag29
ag9
ag153
ag50
aS'British Indian Ocean Territory'
p846
ag28
ag4
ag7
ag846
ag28
ag4
ag7
ag846
ag28
ag4
ag7
aS'United Kingdom'
p847
aS'Saint Pierre and Miquelon'
p848
ag4
ag277
ag28
ag10
ag60
ag4
ag7
ag12
ag29
ag348
aS'British Indian Ocean Territory'
p849
ag8
aS'United Kingdom'
p850
ag4
ag7
ag12
ag4
ag7
ag32
ag4
ag10
ag4
ag29
ag4
ag29
ag18
ag4
ag10
ag4
ag7
aS'British Indian Ocean Territory'
p851
ag10
ag4
ag7
ag12
ag10
ag16
ag4
ag7
ag12
ag16
ag4
ag22
ag16
ag4
ag16
ag4
ag22
ag10
ag4
ag7
ag8
ag42
ag4
ag4
ag16
ag154
ag16
ag4
ag10
ag16
ag4
ag7
ag12
ag16
ag4
aS'French Southern Territories'
p852
ag22
ag16
ag154
aS'Russian Federation'
p853
aVPoland
p854
ag4
aS'Christmas Island'
p855
ag4
ag29
ag7
ag16
ag154
ag4
ag60
ag4
ag153
ag10
ag4
ag7
ag12
aS'British Indian Ocean Territory'
p856
ag4
ag4
ag7
aS'French Southern Territories'
p857
ag4
ag28
ag10
ag4
ag28
ag7
ag12
ag8
ag48
ag10
ag16
ag4
ag28
ag7
ag12
aVJamaica
p858
aS'Hong Kong'
p859
ag10
ag60
ag4
ag7
ag21
ag12
ag28
ag390
ag4
asS'quantum_of_solace_the_complete_james_bond-ian_fleming'
p860
(lp861
g4
ag161
ag16
ag8
aVJamaica
p862
aVMexico
p863
aVCuba
p864
aS'Bahamas'
p865
aS'Falkland Islands (Malvinas)'
p866
aS'United Kingdom'
p867
ag4
ag7
ag12
ag131
ag25
ag127
ag32
ag258
ag8
ag10
ag4
ag7
ag12
ag25
ag32
ag258
ag7
ag4
ag161
ag16
ag28
aVNigeria
p868
aVNigeria
p869
ag10
ag4
ag7
ag42
aVNigeria
p870
aVBermuda
p871
ag4
aVBermuda
p872
aS'Central African Republic'
p873
ag10
ag4
ag7
ag12
ag31
ag553
ag4
ag10
aVBermuda
p874
ag4
ag42
ag8
ag7
ag10
aVBermuda
p875
ag4
ag42
ag8
ag7
ag591
ag10
aVBermuda
p876
ag4
ag29
ag8
ag42
aS'Bahamas'
p877
aVBermuda
p878
ag10
ag4
ag10
ag4
ag42
ag8
ag7
ag591
aVBermuda
p879
ag4
ag4
ag4
ag42
ag8
ag7
ag591
ag10
aVJamaica
p880
aVNigeria
p881
aVBermuda
p882
ag10
ag4
ag8
ag7
ag171
aVCanada
p883
aVBermuda
p884
ag4
ag161
ag16
ag25
ag8
ag32
ag258
aS'British Indian Ocean Territory'
p885
ag4
ag131
ag7
asS'dr.no-ian_fleming'
p886
(lp887
S'Russian Federation'
p888
ag4
ag7
aS'United Kingdom'
p889
ag4
ag10
ag4
ag8
ag7
ag171
ag182
aVJamaica
p890
ag10
ag4
ag8
ag7
ag171
aS'British Indian Ocean Territory'
p891
ag10
ag4
ag8
ag7
ag171
ag182
ag8
ag10
ag4
ag7
ag12
ag10
ag4
ag8
ag7
ag12
ag171
ag182
ag19
aVJamaica
p892
ag10
ag4
ag7
ag66
ag12
ag10
ag4
ag7
ag12
ag8
ag10
ag4
ag7
ag12
ag16
ag29
ag4
ag10
ag4
aVJamaica
p893
ag4
ag61
aVIsrael
p894
aVJamaica
p895
ag4
aS'United Kingdom'
p896
ag4
aVJamaica
p897
ag4
ag10
ag4
ag114
ag50
ag72
aVCuba
p898
ag10
ag4
ag7
ag12
ag127
aVJamaica
p899
ag4
aS'British Indian Ocean Territory'
p900
aVJamaica
p901
aVCuba
p902
ag10
ag4
ag114
ag50
ag153
ag127
ag72
aVJamaica
p903
ag4
ag22
ag10
ag4
ag131
ag7
aS'British Indian Ocean Territory'
p904
ag4
aVJamaica
p905
aVCuba
p906
ag4
ag127
ag10
ag4
ag8
ag7
ag12
ag171
ag182
ag29
aVJamaica
p907
aVCayman Islands
p908
ag10
ag4
ag8
ag7
ag171
ag10
ag4
ag8
ag7
ag171
ag182
ag10
ag4
ag8
ag7
ag12
ag171
ag182
ag10
ag4
ag8
ag7
ag12
ag171
ag182
aS'British Indian Ocean Territory'
p909
aVJamaica
p910
ag10
ag4
ag8
ag7
ag171
ag28
ag33
ag10
ag4
ag8
ag7
ag171
ag182
ag153
ag28
ag10
ag4
ag8
ag7
ag12
ag171
ag182
ag4
ag10
ag4
ag7
ag12
ag29
ag8
ag28
ag10
ag4
ag8
ag7
ag12
ag171
ag29
ag182
ag21
ag182
aVJamaica
p911
ag4
ag4
ag8
ag4
ag7
ag10
ag4
ag7
ag8
aS'Christmas Island'
p912
aVPeru
p913
ag4
ag48
aVPeru
p914
ag4
ag66
ag22
ag48
ag914
ag4
ag66
ag22
ag48
ag914
ag4
ag66
ag22
ag48
aS'British Indian Ocean Territory'
p915
aVJamaica
p916
ag4
aVJamaica
p917
aVCuba
p918
ag4
ag127
ag10
ag4
ag8
ag7
ag171
ag182
ag10
ag4
ag8
ag7
ag171
ag182
aVJamaica
p919
ag10
ag4
ag8
ag7
ag171
aS'Christmas Island'
p920
aVJamaica
p921
ag10
ag4
ag8
ag7
ag171
ag10
ag4
ag8
ag7
ag171
ag182
ag28
ag4
ag10
aS'French Southern Territories'
p922
ag28
ag4
ag10
ag4
ag8
ag7
ag171
ag182
ag4
ag8
ag4
aVJamaica
p923
ag4
aVJamaica
p924
ag4
ag8
aVJamaica
p925
ag4
ag8
aVJamaica
p926
ag4
ag4
ag4
ag10
ag131
ag7
ag30
ag153
aS'British Indian Ocean Territory'
p927
ag4
ag4
ag22
ag4
aS'United States'
p928
ag28
aS'United Kingdom'
p929
aVJamaica
p930
ag4
ag153
aVJamaica
p931
aS'Congo, The Democratic Republic of the'
p932
ag4
ag16
aVJamaica
p933
ag4
ag933
ag4
ag933
ag4
aVJamaica
p934
ag4
ag153
aS'Christmas Island'
p935
ag4
ag131
ag7
aVJamaica
p936
ag10
ag4
ag8
ag7
ag171
aVJamaica
p937
ag4
aVJamaica
p938
ag4
ag4
ag4
aVJamaica
p939
aS'Christmas Island'
p940
ag4
ag4
ag4
ag4
ag4
ag4
ag8
ag8
ag10
ag4
ag7
ag12
ag8
ag10
ag4
ag7
ag12
ag25
ag8
ag10
ag4
ag7
ag12
ag25
ag8
ag10
ag4
ag7
ag12
ag25
ag10
ag4
ag7
ag25
ag4
ag8
ag4
ag4
aS'United Kingdom'
p941
aVJamaica
p942
ag4
ag4
aS'French Southern Territories'
p943
ag4
aVChina
p944
ag22
ag4
aS'United Kingdom'
p945
ag4
ag40
ag28
ag7
ag12
ag4
aVJamaica
p946
ag4
aVCuba
p947
ag4
ag114
ag50
ag127
ag72
aVJamaica
p948
aVCuba
p949
ag4
ag127
aVJamaica
p950
ag10
ag4
ag7
ag12
aVJamaica
p951
ag4
ag10
ag4
ag7
ag12
aVBrazil
p952
ag4
aS'China'
p953
ag60
ag4
ag60
ag4
ag10
ag4
ag8
ag7
ag171
ag182
ag131
ag331
ag8
aVJamaica
p954
aVNorway
p955
ag4
ag22
ag153
aS'Christmas Island'
p956
ag18
ag4
ag4
ag18
ag4
ag66
aS'Christmas Island'
p957
ag4
ag4
ag4
aS'Christmas Island'
p958
aVCuba
p959
ag4
ag29
ag127
aVJamaica
p960
ag4
ag960
ag4
ag960
ag4
aVCuba
p961
ag10
ag4
ag7
ag12
ag127
ag18
ag4
ag4
aVJamaica
p962
ag4
ag4
ag7
ag10
ag42
ag8
ag10
ag4
ag8
ag7
ag171
ag182
ag10
ag4
ag8
ag7
ag171
ag182
ag4
aS'Russian Federation'
p963
aVJamaica
p964
aS'Hong Kong'
p965
ag10
ag4
ag7
ag12
ag28
asS'for_your_eyes_only-ian_fleming'
p966
(lp967
S'Russian Federation'
p968
ag4
ag7
aS'United Kingdom'
p969
ag4
aS'British Indian Ocean Territory'
p970
ag28
ag4
ag7
aS'British Indian Ocean Territory'
p971
aS'French Southern Territories'
p972
ag28
ag4
aS'French Southern Territories'
p973
ag28
ag4
ag7
ag10
ag4
ag28
ag7
ag12
aS'Afghanistan'
p974
ag28
ag4
ag66
ag7
aS'French Southern Territories'
p975
ag28
ag4
ag18
ag28
ag4
ag7
aS'French Southern Territories'
p976
ag28
ag4
ag7
ag28
ag4
ag7
ag10
ag28
ag4
ag22
ag28
ag4
ag7
ag10
ag4
ag7
ag12
ag28
aS'British Indian Ocean Territory'
p977
aS'French Southern Territories'
p978
ag4
ag8
ag7
ag18
aS'Hong Kong'
p979
ag4
ag18
ag28
aS'French Southern Territories'
p980
ag4
ag8
ag7
ag18
aS'French Southern Territories'
p981
ag4
ag22
aS'British Indian Ocean Territory'
p982
ag28
ag4
ag7
ag4
ag28
ag7
aVJamaica
p983
ag4
ag7
aVPanama
p984
aS'Christmas Island'
p985
aS'Timor-Leste'
p986
aVCuba
p987
ag10
ag4
ag7
ag12
ag127
ag8
aVJamaica
p988
ag10
ag4
ag8
ag7
ag171
ag4
ag7
ag331
ag10
ag4
ag8
ag7
ag171
ag182
aVJamaica
p989
ag4
ag7
ag4
ag7
aS'British Indian Ocean Territory'
p990
aVJamaica
p991
ag8
ag10
ag4
ag7
ag12
ag171
ag331
aVJamaica
p992
aVMalta
p993
ag4
ag7
ag25
ag35
ag32
ag258
ag331
aVJamaica
p994
aS'Micronesia, Federated States of'
p995
aVCuba
p996
ag4
ag8
ag131
ag25
ag127
ag7
ag32
ag258
ag28
aVJamaica
p997
ag4
ag331
ag10
ag4
ag7
ag12
ag28
ag10
ag4
ag7
ag12
ag8
aVCanada
p998
ag4
ag8
ag7
ag4
ag28
ag10
ag4
ag7
ag12
ag8
ag4
ag10
ag4
ag7
ag28
ag4
ag8
ag8
ag4
aVJamaica
p999
aS'China'
p1000
ag10
ag4
ag8
ag7
ag12
ag60
aVJamaica
p1001
aVCuba
p1002
ag4
ag127
ag4
ag7
ag10
ag4
ag7
ag12
aS'British Indian Ocean Territory'
p1003
ag4
ag7
ag4
ag4
ag4
ag4
ag4
aVCanada
p1004
ag10
ag4
ag12
ag10
ag4
ag7
ag161
ag12
ag16
ag8
aS'Bahamas'
p1005
aVJamaica
p1006
aVMexico
p1007
aS'United Kingdom'
p1008
aVCuba
p1009
ag4
ag7
ag12
ag131
ag25
ag127
ag32
ag258
ag8
ag10
ag4
ag7
ag25
ag32
ag258
ag7
ag4
ag161
ag16
ag28
aVNigeria
p1010
aVNigeria
p1011
ag10
ag4
ag7
ag42
aVNigeria
p1012
aVBermuda
p1013
aS'Central African Republic'
p1014
ag10
ag4
ag7
ag12
ag31
ag553
aS'Central African Republic'
p1015
aVBermuda
p1016
ag4
ag10
ag4
ag42
ag8
ag7
ag591
ag10
aVBermuda
p1017
ag4
ag42
ag8
ag7
ag591
ag10
aVBermuda
p1018
ag10
ag4
ag29
ag8
ag42
aS'Bahamas'
p1019
ag10
ag4
ag10
ag4
ag42
ag8
ag7
ag591
ag10
ag4
ag42
ag8
ag7
ag591
ag10
ag4
ag42
ag8
ag7
ag591
aVBermuda
p1020
ag4
ag4
ag4
ag42
ag8
ag7
ag591
ag10
aVJamaica
p1021
aVNigeria
p1022
aVBermuda
p1023
ag10
ag4
ag8
ag7
ag171
aVCanada
p1024
ag4
ag161
ag16
ag25
ag8
ag32
ag258
aS'British Indian Ocean Territory'
p1025
ag4
ag8
ag131
ag7
ag25
ag28
ag25
ag4
ag40
aVMexico
p1026
ag4
ag66
aVItaly
p1027
ag10
ag4
aVItaly
p1028
ag4
aVItaly
p1029
aVFrance
p1030
ag4
aS'United Kingdom'
p1031
ag32
aVItaly
p1032
ag4
ag4
ag25
ag11
ag68
ag4
aVPakistan
p1033
ag56
ag7
ag25
ag11
ag4
ag25
ag4
aVSri Lanka
p1034
ag32
ag25
ag4
ag25
ag4
ag25
ag4
ag46
ag154
ag32
aVItaly
p1035
aS'French Southern Territories'
p1036
ag4
ag28
ag25
ag4
ag1034
ag32
ag1034
ag32
ag1034
ag32
ag25
ag1034
ag32
ag1034
ag32
ag4
ag1034
ag32
aVItaly
p1037
aVSierra Leone
p1038
aVSouth Africa
p1039
ag68
ag4
ag277
ag56
ag1034
ag7
ag32
aVAlbania
p1040
aVItaly
p1041
ag10
ag4
ag7
ag12
ag1034
ag21
ag32
aS'Afghanistan'
p1042
ag1034
ag32
ag1034
ag4
ag32
aVMexico
p1043
ag4
ag1034
ag32
ag1034
ag32
ag25
ag4
ag1034
ag32
aS'Russian Federation'
p1044
aVAlbania
p1045
aVItaly
p1046
ag10
ag4
ag7
ag12
ag1034
ag32
ag1034
ag32
aS'British Indian Ocean Territory'
p1047
aVSeychelles
p1048
aS'British Indian Ocean Territory'
p1049
aVSeychelles
p1050
ag4
aS'British Indian Ocean Territory'
p1051
aVSeychelles
p1052
aS'Central African Republic'
p1053
ag28
ag4
ag7
ag10
ag255
ag256
ag257
ag49
ag258
ag50
ag259
ag48
ag4
aVMaldives
p1054
aVSeychelles
p1055
aVFrance
p1056
ag10
ag31
ag4
ag16
ag7
ag4
ag7
ag10
ag42
ag8
ag4
ag4
ag22
ag10
ag4
ag7
ag12
ag4
ag8
ag4
aVSeychelles
p1057
ag4
aVSeychelles
p1058
ag4
aS'British Indian Ocean Territory'
p1059
ag4
ag16
ag10
ag10
ag4
ag28
ag7
ag12
aVBrazil
p1060
ag4
ag4
ag9
ag25
ag4
ag28
ag31
ag7
aS'Russian Federation'
p1061
aVItaly
p1062
aS'China'
p1063
aVFrance
p1064
ag4
ag4
ag4
ag10
ag8
ag4
ag4
ag29
ag386
ag4
ag31
ag28
ag33
aS'British Indian Ocean Territory'
p1065
ag10
ag60
ag4
ag7
ag12
aS'Russian Federation'
p1066
aVJamaica
p1067
aS'Hong Kong'
p1068
ag4
ag28
asS'thunderball-ian_fleming'
p1069
(lp1070
S'Russian Federation'
p1071
ag10
ag4
ag7
ag8
aS'United Kingdom'
p1072
ag4
ag7
aS'French Southern Territories'
p1073
ag18
ag4
ag10
ag4
ag7
ag12
aS'United Kingdom'
p1074
ag4
ag153
ag10
ag10
ag4
ag29
ag7
ag28
ag4
ag4
ag7
ag8
ag10
ag4
ag7
ag12
ag19
ag8
ag10
ag4
ag7
ag153
aS'French Southern Territories'
p1075
ag8
ag10
ag4
ag7
ag12
ag8
ag10
ag4
ag7
ag153
aS'British Indian Ocean Territory'
p1076
ag4
ag16
aS'French Southern Territories'
p1077
ag7
ag8
ag4
ag10
ag50
ag4
ag28
ag8
ag7
ag10
aS'Hong Kong'
p1078
aS'Macao'
p1079
ag153
aS'British Indian Ocean Territory'
p1080
aS'Macao'
p1081
aS'Hong Kong'
p1082
ag4
ag10
ag4
ag153
ag16
aS'British Indian Ocean Territory'
p1083
ag4
ag21
ag79
ag127
ag4
ag16
aS'Hong Kong'
p1084
ag10
ag4
ag28
ag8
ag7
ag263
ag16
ag16
ag4
ag16
ag4
ag4
aS'Bahamas'
p1085
aVSwitzerland
p1086
aVLiechtenstein
p1087
ag28
ag4
ag7
ag18
ag8
aS'United Kingdom'
p1088
aS'French Southern Territories'
p1089
ag28
ag4
ag7
ag8
ag10
ag4
ag7
ag12
aS'United Kingdom'
p1090
ag4
ag16
ag19
ag7
aS'British Indian Ocean Territory'
p1091
aVPoland
p1092
aS'French Southern Territories'
p1093
ag4
aVTurkey
p1094
aVSweden
p1095
aS'French Southern Territories'
p1096
ag4
ag153
ag40
ag19
ag8
ag22
aVTurkey
p1097
aS'French Southern Territories'
p1098
aS'British Indian Ocean Territory'
p1099
aVPoland
p1100
aS'Central African Republic'
p1101
aVSwitzerland
p1102
ag4
aVSwitzerland
p1103
aS'Macedonia, Republic of'
p1104
aS'Hong Kong'
p1105
aS'Turks and Caicos Islands'
p1106
aVFrance
p1107
ag68
ag153
ag22
aS'Hong Kong'
p1108
ag68
ag154
ag22
aS'British Indian Ocean Territory'
p1109
aS'Afghanistan'
p1110
aS'Hong Kong'
p1111
aS'Czech Republic'
p1112
aS'French Southern Territories'
p1113
ag25
ag16
ag4
ag21
ag46
ag32
ag258
ag49
ag331
ag48
aS'United Kingdom'
p1114
ag4
ag28
ag16
ag21
ag7
ag27
aS'French Southern Territories'
p1115
ag28
ag4
ag8
aS'United Kingdom'
p1116
aS'United Kingdom'
p1117
aS'Macao'
p1118
ag4
ag22
aS'Congo, The Democratic Republic of the'
p1119
ag28
aVSlovenia
p1120
ag56
ag4
ag7
ag22
aS'Macedonia, Republic of'
p1121
ag25
ag8
ag4
ag22
aS'British Indian Ocean Territory'
p1122
ag25
ag40
ag4
ag22
aS'United Kingdom'
p1123
aS'French Southern Territories'
p1124
ag4
ag22
ag17
ag18
ag10
ag4
ag7
aS'Svalbard and Jan Mayen'
p1125
ag4
ag4
ag8
ag10
ag4
ag7
aS'United Kingdom'
p1126
ag8
ag4
ag7
ag12
aS'British Indian Ocean Territory'
p1127
aS'United Kingdom'
p1128
ag4
aS'French Southern Territories'
p1129
ag4
aS'United Kingdom'
p1130
aS'Bahamas'
p1131
aVBermuda
p1132
ag4
ag7
ag28
ag4
ag28
ag8
ag10
ag4
ag7
aS'Bahamas'
p1133
aVBermuda
p1134
ag4
aVJamaica
p1135
aS'French Southern Territories'
p1136
aVCuba
p1137
aS'Bahamas'
p1138
aVBermuda
p1139
aS'United Kingdom'
p1140
ag8
ag4
ag127
ag4
ag161
ag8
ag7
ag16
ag10
ag8
ag10
ag4
ag7
ag12
ag4
ag8
ag7
ag10
ag4
aVItaly
p1141
ag4
ag22
ag25
ag4
ag69
aS'United Kingdom'
p1142
aS'Bahamas'
p1143
ag28
ag4
ag12
ag7
ag69
ag10
ag12
ag4
ag12
ag4
ag4
aS'United Kingdom'
p1144
ag4
ag7
ag12
ag8
ag28
ag18
aS'United Kingdom'
p1145
aS'French Southern Territories'
p1146
ag4
ag161
ag131
ag16
ag7
aS'United Kingdom'
p1147
ag4
ag161
ag7
ag16
ag46
ag4
ag161
ag16
aS'United Kingdom'
p1148
aVItaly
p1149
ag4
ag256
ag25
ag4
ag256
ag161
ag56
ag16
ag7
ag4
ag4
ag22
ag4
ag153
aS'United Kingdom'
p1150
ag4
aS'Bahamas'
p1151
aVItaly
p1152
ag4
ag114
ag50
ag12
ag72
aS'British Indian Ocean Territory'
p1153
aVBermuda
p1154
aS'Turks and Caicos Islands'
p1155
aS'French Southern Territories'
p1156
ag4
ag161
ag7
ag131
ag16
ag4
ag161
ag16
ag4
ag4
ag4
ag161
ag16
aVBermuda
p1157
ag4
ag161
ag16
ag4
ag161
ag16
ag153
ag4
ag10
ag4
ag10
ag4
ag10
aS'Egypt'
p1158
aS'Bahamas'
p1159
aVCuba
p1160
ag4
ag114
ag50
ag127
ag72
ag4
ag4
ag161
ag16
ag30
ag7
aVItaly
p1161
ag4
ag4
aS'British Indian Ocean Territory'
p1162
aS'Bahamas'
p1163
ag10
ag4
ag7
ag12
ag16
ag114
ag4
ag50
ag72
aS'Afghanistan'
p1164
ag10
ag4
ag7
ag161
ag12
ag16
ag4
ag4
ag29
ag153
ag4
ag161
ag29
ag16
ag8
ag10
ag4
ag7
ag153
ag28
aS'French Southern Territories'
p1165
aVFrance
p1166
ag4
ag4
ag25
ag4
ag28
ag12
ag33
ag32
ag4
ag4
ag4
ag114
ag50
ag153
ag72
aS'United Kingdom'
p1167
ag25
ag4
ag4
ag4
aVGibraltar
p1168
ag4
ag4
ag28
aS'Holy See (Vatican City State)'
p1169
ag10
ag4
aS'Bahamas'
p1170
ag4
ag4
aS'Micronesia, Federated States of'
p1171
ag4
ag4
ag4
ag153
ag29
ag28
ag4
ag10
aVKenya
p1172
aVCyprus
p1173
ag4
ag28
ag4
ag161
ag131
ag16
ag7
aS'British Indian Ocean Territory'
p1174
ag4
ag28
ag8
ag18
ag4
ag4
aS"Lao People's Democratic Republic"
p1175
ag4
aS'United Kingdom'
p1176
ag4
ag4
ag161
ag16
ag153
aS'French Southern Territories'
p1177
ag4
ag161
ag16
ag4
aS'British Indian Ocean Territory'
p1178
aVJapan
p1179
aS'China'
p1180
ag10
ag4
ag57
ag60
ag7
aVItaly
p1181
ag4
ag10
ag10
ag4
ag153
ag153
ag153
ag153
ag4
ag4
ag10
ag4
ag7
ag12
aS'Christmas Island'
p1182
ag4
aVSwitzerland
p1183
aS'Congo, The Democratic Republic of the'
p1184
ag10
ag4
ag28
ag4
ag161
ag16
ag4
ag153
aS'Christmas Island'
p1185
ag4
aS'Central African Republic'
p1186
ag4
ag161
ag16
ag60
ag11
ag4
ag131
ag7
ag153
aS'Christmas Island'
p1187
ag153
ag28
ag10
ag4
ag7
ag12
ag10
ag4
ag7
ag12
ag4
ag161
ag16
ag28
aVSwitzerland
p1188
aS'Bahamas'
p1189
aVItaly
p1190
ag4
ag16
aS'British Indian Ocean Territory'
p1191
ag10
ag4
ag7
ag161
ag12
ag16
ag4
ag28
ag4
ag131
ag7
aS'French Southern Territories'
p1192
ag4
ag4
ag4
ag4
ag4
ag161
ag16
ag25
ag4
ag4
ag4
ag4
ag153
ag10
aS"Korea, Democratic People's Republic of"
p1193
ag7
ag4
ag4
ag29
ag131
ag153
ag7
aS'British Indian Ocean Territory'
p1194
aS'Hong Kong'
p1195
ag4
ag131
ag28
ag7
aS'British Indian Ocean Territory'
p1196
ag4
ag28
ag10
ag4
ag7
ag12
ag29
aS'China'
p1197
ag153
ag4
ag161
ag131
ag16
ag7
aS'United Kingdom'
p1198
ag4
aS'United Kingdom'
p1199
ag4
ag7
ag161
ag12
ag16
ag4
ag161
ag16
ag4
ag28
ag7
aS'United Kingdom'
p1200
ag4
ag1200
ag4
ag1200
ag4
ag25
ag4
ag28
ag18
ag8
ag4
ag66
ag30
ag32
ag12
ag153
ag28
ag4
ag161
ag29
ag16
aS'Virgin Islands, U.S.'
p1201
ag4
ag4
ag8
aVMauritius
p1202
ag4
ag10
aS'United Kingdom'
p1203
ag4
ag7
ag29
aS'Bahamas'
p1204
ag4
ag8
ag28
ag18
ag66
ag4
ag4
ag4
ag4
ag4
ag4
ag4
ag4
ag4
ag4
aS'United Kingdom'
p1205
aVJamaica
p1206
aS'Hong Kong'
p1207
ag10
ag60
ag4
ag7
ag12
ag28
aS'Russian Federation'
p1208
ag4
asS'casino_royale-ian_fleming'
p1209
(lp1210
S'Russian Federation'
p1211
ag10
ag4
ag7
ag8
aS'United Kingdom'
p1212
ag4
ag7
aVJamaica
p1213
aVFrance
p1214
ag10
ag4
ag7
ag12
aVCanada
p1215
aVJamaica
p1216
aVCayman Islands
p1217
aVMalta
p1218
aVFrance
p1219
ag4
ag35
aVJamaica
p1220
ag8
ag10
ag4
ag7
ag12
ag171
aS'French Southern Territories'
p1221
ag10
ag4
ag7
ag12
aS'British Indian Ocean Territory'
p1222
aVFrance
p1223
ag10
ag1222
ag1223
ag10
ag1222
ag1223
ag10
aS'French Southern Territories'
p1224
ag4
ag28
ag7
ag10
ag4
ag28
ag16
ag7
aS'French Southern Territories'
p1225
ag60
ag28
ag4
ag7
ag22
aS'Russian Federation'
p1226
aS'British Indian Ocean Territory'
p1227
aS'Macedonia, Republic of'
p1228
aVMexico
p1229
ag4
ag10
ag8
ag4
ag27
ag10
ag4
ag28
ag27
aVJamaica
p1230
ag10
ag4
ag8
ag7
ag171
ag28
aS'French Southern Territories'
p1231
ag25
ag4
ag28
ag7
aS'Czech Republic'
p1232
aVFrance
p1233
ag4
ag22
aVJamaica
p1234
aS'French Southern Territories'
p1235
ag10
ag25
ag4
ag7
ag12
aS'Turks and Caicos Islands'
p1236
aS'French Southern Territories'
p1237
ag10
ag4
ag7
ag28
ag12
ag28
ag4
aS'French Southern Territories'
p1238
ag8
ag10
ag28
ag4
ag7
aVFrance
p1239
ag10
ag4
ag7
ag12
ag8
aVJamaica
p1240
ag28
ag4
ag7
ag29
ag4
ag4
ag4
aVJamaica
p1241
ag28
ag4
ag7
ag28
ag7
ag4
ag4
ag10
ag4
ag7
ag12
ag27
ag10
ag4
ag28
ag7
ag4
ag10
ag4
ag4
aS'French Southern Territories'
p1242
ag28
ag4
aS'French Southern Territories'
p1243
ag28
ag4
ag7
aVFrance
p1244
ag79
ag4
ag28
ag7
aS'Macedonia, Republic of'
p1245
ag25
ag4
ag8
ag7
ag4
ag10
ag4
ag28
ag25
aS'British Indian Ocean Territory'
p1246
ag25
ag4
aS'Ethiopia'
p1247
aS'Egypt'
p1248
ag4
ag4
ag8
ag10
ag4
ag7
ag12
aS'French Southern Territories'
p1249
aVFrance
p1250
ag4
ag4
ag4
aS'Timor-Leste'
p1251
ag28
ag4
ag7
ag28
ag4
ag10
ag4
ag28
ag7
ag12
ag4
ag8
ag7
ag4
ag10
ag4
ag4
aS'Afghanistan'
p1252
ag8
ag7
ag4
ag10
ag4
ag10
ag4
ag7
ag12
ag22
aS'French Southern Territories'
p1253
ag4
aS'French Southern Territories'
p1254
ag4
aS'French Southern Territories'
p1255
ag277
ag277
ag277
ag4
ag8
ag7
ag4
ag10
ag4
ag10
ag4
ag7
ag12
ag4
ag10
ag4
ag28
ag7
ag12
aS'French Southern Territories'
p1256
aVFrance
p1257
ag7
ag4
aS'French Southern Territories'
p1258
ag10
ag16
ag4
ag19
ag7
ag12
ag10
ag4
ag7
ag12
ag79
ag4
aVFrance
p1259
ag4
ag4
ag10
ag4
ag7
ag12
ag4
ag10
ag4
ag7
ag66
ag12
ag4
ag10
ag4
ag28
ag7
ag12
ag27
aS'French Southern Territories'
p1260
aVFrance
p1261
ag4
ag7
ag4
ag4
ag28
ag8
ag7
ag4
ag10
ag28
ag4
ag8
ag7
ag10
ag28
ag4
ag7
ag4
aVMadagascar
p1262
ag4
ag1262
ag4
ag1262
ag4
ag4
ag10
ag4
ag7
ag12
aS'French Southern Territories'
p1263
ag4
ag4
ag4
ag4
ag4
ag4
aS'French Southern Territories'
p1264
ag28
ag4
ag7
ag28
ag4
ag7
ag40
ag28
ag4
ag7
ag4
ag4
ag4
aVPoland
p1265
ag4
aVPoland
p1266
ag10
ag4
ag28
ag7
ag12
aVFrance
p1267
ag10
ag4
ag7
ag66
ag12
ag10
ag4
ag7
ag12
aS'Russian Federation'
p1268
aVJamaica
p1269
aS'Hong Kong'
p1270
ag10
ag4
ag7
ag12
ag28
asS'octopussy_and_the_living_daylights_007_in-ian_fleming'
p1271
(lp1272
g10
ag4
ag7
ag12
aS'British Indian Ocean Territory'
p1273
aS'Falkland Islands (Malvinas)'
p1274
ag4
aS'Falkland Islands (Malvinas)'
p1275
ag4
ag7
aS'French Southern Territories'
p1276
ag4
ag28
ag10
ag4
ag28
ag7
ag12
ag8
ag48
ag10
ag16
ag4
ag28
ag7
ag21
ag12
asS'the_man_with_the_golden_gun-ian_fleming'
p1277
(lp1278
S'Russian Federation'
p1279
ag10
ag4
ag7
ag8
aS'United Kingdom'
p1280
ag4
ag7
aVJapan
p1281
ag277
aS'British Indian Ocean Territory'
p1282
ag4
ag10
ag10
ag4
ag8
ag12
ag154
ag7
ag16
ag10
ag4
ag7
ag12
ag4
ag154
ag153
ag8
ag16
ag4
ag8
ag7
ag10
ag4
ag4
ag16
ag16
ag4
ag153
ag10
ag4
ag7
ag12
ag18
ag4
ag28
ag33
aVJapan
p1283
ag60
ag4
ag16
ag8
ag4
aVJapan
p1284
ag153
ag18
ag4
ag4
ag8
ag4
aS'British Indian Ocean Territory'
p1285
aVJamaica
p1286
aS'Central African Republic'
p1287
aVCuba
p1288
ag4
ag7
ag25
ag127
ag21
ag46
ag32
ag258
aVBolivia, Plurinational State of
p1289
ag619
aVHaiti
p1290
aVPanama
p1291
aVMartinique
p1292
ag4
ag21
ag28
ag33
aVJamaica
p1293
aS'Dominican Republic'
p1294
aVCuba
p1295
ag10
ag40
ag4
ag7
ag21
ag411
ag25
ag127
ag348
ag72
ag32
ag258
ag42
aS'British Indian Ocean Territory'
p1296
ag4
ag25
ag4
ag25
ag4
ag25
ag4
ag28
aVJamaica
p1297
ag10
ag4
ag8
ag7
ag171
ag1289
ag331
aS'British Indian Ocean Territory'
p1298
aVJamaica
p1299
ag4
ag51
ag1289
ag331
aS'British Indian Ocean Territory'
p1300
aVJamaica
p1301
aS'Central African Republic'
p1302
ag10
ag25
ag4
ag8
ag7
ag171
aS'United Kingdom'
p1303
ag4
ag8
ag7
ag171
ag182
aVJamaica
p1304
ag10
ag4
ag8
ag7
ag348
ag12
ag171
ag79
ag50
ag10
ag4
ag8
ag7
ag171
ag182
aS'Russian Federation'
p1305
ag10
ag4
ag7
ag12
ag18
aVJamaica
p1306
ag4
ag1306
ag4
ag1306
ag4
ag10
ag4
ag21
ag8
ag1289
aVJamaica
p1307
ag10
ag4
ag8
ag7
ag171
aVJamaica
p1308
aVCuba
p1309
ag4
ag127
ag4
ag25
aVJamaica
p1310
ag10
ag4
ag8
ag7
ag171
ag29
aVJamaica
p1311
ag4
ag16
ag4
aS'United Kingdom'
p1312
aS'China'
p1313
ag10
ag10
ag4
ag7
ag12
aVCuba
p1314
ag10
ag4
ag8
ag7
ag171
ag182
ag127
ag28
ag182
ag4
aVJamaica
p1315
ag4
ag10
ag4
ag8
ag7
ag12
ag171
ag182
ag4
ag8
aS'Micronesia, Federated States of'
p1316
ag4
ag21
ag131
ag7
ag331
ag4
aVJamaica
p1317
ag4
ag10
ag4
ag8
ag7
ag171
ag182
aS'United Kingdom'
p1318
ag4
ag29
ag131
ag7
ag4
ag18
ag21
ag22
ag12
ag4
ag8
ag42
ag4
ag10
ag4
ag7
ag12
aVJamaica
p1319
aS'Micronesia, Federated States of'
p1320
ag10
ag4
ag7
ag12
ag18
aS'French Southern Territories'
p1321
ag4
ag131
ag57
ag8
ag7
ag42
ag10
ag4
ag8
ag7
ag153
ag171
ag182
ag4
ag28
aS'British Indian Ocean Territory'
p1322
aVJamaica
p1323
ag4
ag29
ag8
ag1289
ag331
aS'Russian Federation'
p1324
aVCuba
p1325
ag10
ag4
ag127
aS'Ethiopia'
p1326
aVItaly
p1327
ag10
ag4
ag40
ag8
ag7
ag171
ag182
aVJamaica
p1328
aS'Micronesia, Federated States of'
p1329
ag4
ag331
ag4
ag57
ag8
ag42
aVCuba
p1330
ag4
ag29
ag127
ag8
ag42
ag4
ag28
aVJamaica
p1331
ag4
ag4
ag4
ag4
ag19
ag331
aS'Holy See (Vatican City State)'
p1332
ag10
ag4
ag19
ag153
ag8
ag1289
aS'British Indian Ocean Territory'
p1333
ag10
ag4
ag8
ag7
ag12
ag171
ag19
ag182
aS'British Indian Ocean Territory'
p1334
ag4
ag9
ag10
ag4
ag8
ag7
ag171
ag19
ag182
ag4
aS'United Kingdom'
p1335
ag4
ag331
ag4
ag28
ag10
aS'British Indian Ocean Territory'
p1336
ag60
ag4
ag331
ag10
ag4
ag8
ag7
ag171
ag182
aVJamaica
p1337
aS'Central African Republic'
p1338
ag4
aVJamaica
p1339
aVGeorgia
p1340
ag4
ag161
ag10
ag131
ag16
ag8
ag7
ag331
aS'Micronesia, Federated States of'
p1341
ag4
aS'British Indian Ocean Territory'
p1342
aVJamaica
p1343
aVMexico
p1344
ag4
aS'Micronesia, Federated States of'
p1345
ag60
ag4
ag29
ag4
ag16
ag40
ag4
aS'United Kingdom'
p1346
ag4
ag32
ag1346
ag4
ag32
ag1346
ag4
ag32
ag16
ag40
ag4
ag66
ag4
aS'United Kingdom'
p1347
aVCuba
p1348
ag4
ag127
ag28
ag4
ag25
aVCuba
p1349
ag10
ag4
ag182
ag127
ag8
ag4
ag10
ag4
ag182
ag10
ag4
ag10
ag4
ag8
ag7
ag12
ag171
ag29
ag182
ag10
ag4
ag7
ag12
aVJamaica
p1350
ag4
aS'United Kingdom'
p1351
aVJamaica
p1352
ag4
aS'United Kingdom'
p1353
aVJamaica
p1354
ag4
ag153
ag66
ag4
ag19
aS'Christmas Island'
p1355
ag19
ag4
aVJamaica
p1356
ag4
ag8
ag19
aVJamaica
p1357
ag10
ag4
ag8
ag7
ag171
ag19
aVJamaica
p1358
aS'Hong Kong'
p1359
ag10
ag60
ag4
ag7
ag12
aS'Russian Federation'
p1360
ag4
ag28
as.