(dp1
VBrazil
p2
(lp3
F-10
aF-55
asVCanada
p4
(lp5
F60.108669999999996
aF-113.64258
asVMaldives
p6
(lp7
F3.2000000000000002
aF73
asVTurkmenistan
p8
(lp9
F39.75
aF59.666670000000003
asVPanama
p10
(lp11
F9
aF-80
asVCosta Rica
p12
(lp13
F10
aF-84
asS'Saint Pierre and Miquelon'
p14
(lp15
F46.833329999999997
aF-56.333329999999997
asVBahamas
p16
(lp17
F25.04082
aF-77.371219999999994
asS'Ethiopia'
p18
(lp19
F9
aF39.5
asVGibraltar
p20
(lp21
F36.144739999999999
aF-5.3525700000000001
asVIreland
p22
(lp23
F53
aF-8
asS'Turks and Caicos Islands'
p24
(lp25
F21.733329999999999
aF-71.583330000000004
asVArgentina
p26
(lp27
F-34
aF-64
asVGhana
p28
(lp29
F8.0999999999999996
aF-1.2
asVSaudi Arabia
p30
(lp31
F25
aF45
asVAustralia
p32
(lp33
F-25
aF135
asVThailand
p34
(lp35
F15.5
aF101
asVSlovenia
p36
(lp37
F46.083329999999997
aF15
asVGuatemala
p38
(lp39
F15.5
aF-90.25
asS'Bosnia and Herzegovina'
p40
(lp41
F44.25
aF17.83333
asVChile
p42
(lp43
F-30
aF-71
asVPuerto Rico
p44
(lp45
F18.248290000000001
aF-66.499889999999994
asVBelgium
p46
(lp47
F50.75
aF4.5
asVGermany
p48
(lp49
F51.5
aF10.5
asVHaiti
p50
(lp51
F19
aF-72.416669999999996
asS'Hong Kong'
p52
(lp53
F22.285520000000002
aF114.15769
asVSierra Leone
p54
(lp55
F8.5
aF-11.5
asVSpain
p56
(lp57
F40
aF-4
asVLiberia
p58
(lp59
F6.5
aF-9.5
asVGeorgia
p60
(lp61
F41.999980000000001
aF43.499899999999997
asS"Lao People's Democratic Republic"
p62
(lp63
F18
aF105
asVJamaica
p64
(lp65
F18.16667
aF-77.25
asVDenmark
p66
(lp67
F56
aF10
asVPhilippines
p68
(lp69
F13
aF122
asVMorocco
p70
(lp71
F32
aF-6
asS'Christmas Island'
p72
(lp73
F-10.5
aF105.66667
asVNamibia
p74
(lp75
F-22
aF17
asVFinland
p76
(lp77
F64
aF26
asVMonaco
p78
(lp79
F43.733330000000002
aF7.4166699999999999
asVSwitzerland
p80
(lp81
F47.000160000000001
aF8.0142699999999998
asVNew Zealand
p82
(lp83
F-42
aF174
asVJersey
p84
(lp85
F49.216670000000001
aF-2.1166700000000001
asVPakistan
p86
(lp87
F30
aF70
asVAlbania
p88
(lp89
F41
aF20
asS'Tanzania, United Republic of'
p90
(lp91
F-6
aF35
asVPortugal
p92
(lp93
F39.694499999999998
aF-8.1305700000000005
asVUruguay
p94
(lp95
F-33
aF-56
asVNorfolk Island
p96
(lp97
F-29.033329999999999
aF167.94999999999999
asVSouth Africa
p98
(lp99
F-29
aF24
asVLebanon
p100
(lp101
F33.833329999999997
aF35.833329999999997
asS'Svalbard and Jan Mayen'
p102
(lp103
F78
aF20
asS'Russian Federation'
p104
(lp105
F60
aF100
asVNicaragua
p106
(lp107
F13
aF-85
asS'Falkland Islands (Malvinas)'
p108
(lp109
F-51.75
aF-59.166670000000003
asS'Holy See (Vatican City State)'
p110
(lp111
F41.902250000000002
aF12.4533
asVSaint Vincent and the Grenadines
p112
(lp113
F13.08333
aF-61.200000000000003
asVColombia
p114
(lp115
F4
aF-73.25
asVKenya
p116
(lp117
F1
aF38
asS'Macao'
p118
(lp119
F22.200559999999999
aF113.54611
asVBarbados
p120
(lp121
F13.16667
aF-59.533329999999999
asVTurkey
p122
(lp123
F39
aF35
asS'Afghanistan'
p124
(lp125
F33
aF66
asVMadagascar
p126
(lp127
F-20
aF47
asVItaly
p128
(lp129
F42.833329999999997
aF12.83333
asS'Czech Republic'
p130
(lp131
F49.75
aF15
asS'Solomon Islands'
p132
(lp133
F-8
aF159
asVBolivia, Plurinational State of
p134
(lp135
F-17
aF-65
asVHungary
p136
(lp137
F47
aF20
asVMalta
p138
(lp139
F35.916670000000003
aF14.43333
asVFrance
p140
(lp141
F46
aF2
asVBermuda
p142
(lp143
F32.330219999999997
aF-64.740030000000004
asVIndia
p144
(lp145
F22
aF79
asVNigeria
p146
(lp147
F10
aF8
asVSeychelles
p148
(lp149
F-4.5833300000000001
aF55.666670000000003
asVNorway
p150
(lp151
F62
aF10
asVMalawi
p152
(lp153
F-13.5
aF34
asVIsrael
p154
(lp155
F31.5
aF34.75
asVCuba
p156
(lp157
F22
aF-79.5
asVIran, Islamic Republic of
p158
(lp159
F32
aF53
asVSenegal
p160
(lp161
F14.5
aF-14.25
asS'China'
p162
(lp163
F35
aF105
asS'Micronesia, Federated States of'
p164
(lp165
F6.9240000000000004
aF158.16200000000001
asVMartinique
p166
(lp167
F14.66667
aF-61
asS'Timor-Leste'
p168
(lp169
F-8.8333300000000001
aF125.75
asS'Dominican Republic'
p170
(lp171
F19
aF-70.666669999999996
asVPoland
p172
(lp173
F52
aF20
asVUkraine
p174
(lp175
F49
aF32
asS'Macedonia, Republic of'
p176
(lp177
F41.666670000000003
aF21.75
asS'Congo, The Democratic Republic of the'
p178
(lp179
F-2.5
aF23.5
asVNetherlands
p180
(lp181
F52.25
aF5.75
asVLibya
p182
(lp183
F28
aF17
asVGreece
p184
(lp185
F39
aF22
asS'British Indian Ocean Territory'
p186
(lp187
F-6
aF72
asVIndonesia
p188
(lp189
F-5
aF120
asS'Central African Republic'
p190
(lp191
F7
aF21
asVMauritius
p192
(lp193
F-20.300000000000001
aF57.583329999999997
asVTrinidad and Tobago
p194
(lp195
F11
aF-61
asVLiechtenstein
p196
(lp197
F47.166670000000003
aF9.5333299999999994
asVLatvia
p198
(lp199
F57
aF25
asVJapan
p200
(lp201
F35.685360000000003
aF139.75308999999999
asVBulgaria
p202
(lp203
F42.666670000000003
aF25.25
asVUnited States
p204
(lp205
F39.759999999999998
aF-98.5
asVRomania
p206
(lp207
F46
aF25
asS'French Southern Territories'
p208
(lp209
F-43
aF67
asVCayman Islands
p210
(lp211
F19.5
aF-80.666669999999996
asVMexico
p212
(lp213
F23
aF-102
asS'Egypt'
p214
(lp215
F27
aF30
asVCyprus
p216
(lp217
F35
aF33
asVSingapore
p218
(lp219
F1.3666700000000001
aF103.8
asVSerbia
p220
(lp221
F44.818919999999999
aF20.459980000000002
asVSweden
p222
(lp223
F62
aF15
asVPeru
p224
(lp225
F-10
aF-75.25
asVUnited Kingdom
p226
(lp227
F54.75844
aF-2.6953100000000001
asVMalaysia
p228
(lp229
F2.5
aF112.5
asVAustria
p230
(lp231
F47.333329999999997
aF13.33333
asS'Congo'
p232
(lp233
F-1
aF15.5
asVUganda
p234
(lp235
F1.25
aF32.5
asS"Korea, Democratic People's Republic of"
p236
(lp237
F40
aF127
asVSri Lanka
p238
(lp239
F7.75
aF80.75
asVCroatia
p240
(lp241
F45.166670000000003
aF15.5
asVIsle of Man
p242
(lp243
F54.25
aF-4.5
as.